SF:/Users/mykolborghese/rust-backend/src/api/dtos/admin_dto.rs
FN:37,_RNvXNtNtNtCscP9pq2ikS3v_12rust_backend3api4dtos9admin_dtoNtB2_12AdminUserRowNtNtCsezyhsC6CBT9_4core3fmt5Debug3fmt
FN:72,_RNvXs_NtNtNtCscP9pq2ikS3v_12rust_backend3api4dtos9admin_dtoNtB4_23AdminUserDetailResponseNtNtCsezyhsC6CBT9_4core3fmt5Debug3fmt
FN:146,_RNvNtNtNtNtCs4kTbYauoumE_12rust_backend3api4dtos9admin_dto5testss_42admin_user_detail_debug_redacts_pii_fields
FN:72,_RNvXs_NtNtNtCs4kTbYauoumE_12rust_backend3api4dtos9admin_dtoNtB4_23AdminUserDetailResponseNtNtCsezyhsC6CBT9_4core3fmt5Debug3fmt
FN:37,_RNvXNtNtNtCs4kTbYauoumE_12rust_backend3api4dtos9admin_dtoNtB2_12AdminUserRowNtNtCsezyhsC6CBT9_4core3fmt5Debug3fmt
FNDA:0,_RNvXNtNtNtCscP9pq2ikS3v_12rust_backend3api4dtos9admin_dtoNtB2_12AdminUserRowNtNtCsezyhsC6CBT9_4core3fmt5Debug3fmt
FNDA:0,_RNvXs_NtNtNtCscP9pq2ikS3v_12rust_backend3api4dtos9admin_dtoNtB4_23AdminUserDetailResponseNtNtCsezyhsC6CBT9_4core3fmt5Debug3fmt
FNDA:1,_RNvNtNtNtNtCs4kTbYauoumE_12rust_backend3api4dtos9admin_dto5testss_42admin_user_detail_debug_redacts_pii_fields
FNDA:1,_RNvXs_NtNtNtCs4kTbYauoumE_12rust_backend3api4dtos9admin_dtoNtB4_23AdminUserDetailResponseNtNtCsezyhsC6CBT9_4core3fmt5Debug3fmt
FNDA:0,_RNvXNtNtNtCs4kTbYauoumE_12rust_backend3api4dtos9admin_dtoNtB2_12AdminUserRowNtNtCsezyhsC6CBT9_4core3fmt5Debug3fmt
FNF:3
FNH:2
DA:37,0
DA:38,0
DA:39,0
DA:40,0
DA:41,0
DA:42,0
DA:43,0
DA:44,0
DA:45,0
DA:46,0
DA:47,0
DA:72,1
DA:73,1
DA:74,1
DA:75,1
DA:76,1
DA:77,1
DA:78,1
DA:79,1
DA:80,1
DA:81,1
DA:83,1
DA:84,1
DA:85,1
DA:86,1
DA:87,1
DA:146,1
DA:147,1
DA:148,1
DA:149,1
DA:150,1
DA:151,1
DA:152,1
DA:153,1
DA:154,1
DA:155,1
DA:156,1
DA:157,1
DA:159,1
DA:160,1
DA:161,1
DA:162,1
DA:163,1
DA:164,1
BRF:0
BRH:0
LF:44
LH:33
end_of_record
SF:/Users/mykolborghese/rust-backend/src/api/dtos/common.rs
FN:30,_RNvNtNtNtCscP9pq2ikS3v_12rust_backend3api4dtos6common12default_page
FN:34,_RNvNtNtNtCscP9pq2ikS3v_12rust_backend3api4dtos6common13default_limit
FN:30,_RNvNtNtNtCs4kTbYauoumE_12rust_backend3api4dtos6common12default_page
FN:34,_RNvNtNtNtCs4kTbYauoumE_12rust_backend3api4dtos6common13default_limit
FNDA:0,_RNvNtNtNtCscP9pq2ikS3v_12rust_backend3api4dtos6common12default_page
FNDA:0,_RNvNtNtNtCscP9pq2ikS3v_12rust_backend3api4dtos6common13default_limit
FNDA:0,_RNvNtNtNtCs4kTbYauoumE_12rust_backend3api4dtos6common12default_page
FNDA:0,_RNvNtNtNtCs4kTbYauoumE_12rust_backend3api4dtos6common13default_limit
FNF:2
FNH:0
DA:30,0
DA:31,0
DA:32,0
DA:34,0
DA:35,0
DA:36,0
BRF:0
BRH:0
LF:6
LH:0
end_of_record
SF:/Users/mykolborghese/rust-backend/src/api/dtos/equipment_dto.rs
FN:104,_RINvNtNtNtCscP9pq2ikS3v_12rust_backend3api4dtos13equipment_dto32deserialize_optional_query_valueNtNtCs27oXQVB6wJg_16serde_urlencoded2de4PartNtCsjP3nRwyWT8G_4uuid4UuidEB8_
FN:104,_RINvNtNtNtCscP9pq2ikS3v_12rust_backend3api4dtos13equipment_dto32deserialize_optional_query_valueNtNtCs27oXQVB6wJg_16serde_urlencoded2de4PartNtNtCskFSvpNwgONa_12rust_decimal7decimal7DecimalEB8_
FN:104,_RINvNtNtNtCscP9pq2ikS3v_12rust_backend3api4dtos13equipment_dto32deserialize_optional_query_valueNtNtCs27oXQVB6wJg_16serde_urlencoded2de4PartbEB8_
FN:104,_RINvNtNtNtCscP9pq2ikS3v_12rust_backend3api4dtos13equipment_dto32deserialize_optional_query_valueNtNtCs27oXQVB6wJg_16serde_urlencoded2de4PartdEB8_
FN:104,_RINvNtNtNtCscP9pq2ikS3v_12rust_backend3api4dtos13equipment_dto32deserialize_optional_query_valueNtNtCs27oXQVB6wJg_16serde_urlencoded2de4PartxEB8_
FN:104,_RINvNtNtNtCs4kTbYauoumE_12rust_backend3api4dtos13equipment_dto32deserialize_optional_query_valueppEB8_
FNDA:0,_RINvNtNtNtCscP9pq2ikS3v_12rust_backend3api4dtos13equipment_dto32deserialize_optional_query_valueNtNtCs27oXQVB6wJg_16serde_urlencoded2de4PartNtCsjP3nRwyWT8G_4uuid4UuidEB8_
FNDA:0,_RINvNtNtNtCscP9pq2ikS3v_12rust_backend3api4dtos13equipment_dto32deserialize_optional_query_valueNtNtCs27oXQVB6wJg_16serde_urlencoded2de4PartNtNtCskFSvpNwgONa_12rust_decimal7decimal7DecimalEB8_
FNDA:0,_RINvNtNtNtCscP9pq2ikS3v_12rust_backend3api4dtos13equipment_dto32deserialize_optional_query_valueNtNtCs27oXQVB6wJg_16serde_urlencoded2de4PartbEB8_
FNDA:0,_RINvNtNtNtCscP9pq2ikS3v_12rust_backend3api4dtos13equipment_dto32deserialize_optional_query_valueNtNtCs27oXQVB6wJg_16serde_urlencoded2de4PartdEB8_
FNDA:0,_RINvNtNtNtCscP9pq2ikS3v_12rust_backend3api4dtos13equipment_dto32deserialize_optional_query_valueNtNtCs27oXQVB6wJg_16serde_urlencoded2de4PartxEB8_
FNDA:0,_RINvNtNtNtCs4kTbYauoumE_12rust_backend3api4dtos13equipment_dto32deserialize_optional_query_valueppEB8_
FNF:1
FNH:0
DA:104,0
DA:105,0
DA:106,0
DA:107,0
DA:108,0
DA:110,0
DA:111,0
DA:112,0
DA:115,0
DA:116,0
DA:117,0
DA:118,0
DA:120,0
DA:121,0
DA:123,0
DA:124,0
DA:125,0
DA:126,0
DA:127,0
BRF:0
BRH:0
LF:19
LH:0
end_of_record
SF:/Users/mykolborghese/rust-backend/src/api/openapi.rs
FN:56,_RNvNtNtCscP9pq2ikS3v_12rust_backend3api7openapi20configure_swagger_ui
FN:56,_RNvNtNtCs4kTbYauoumE_12rust_backend3api7openapi20configure_swagger_ui
FNDA:0,_RNvNtNtCscP9pq2ikS3v_12rust_backend3api7openapi20configure_swagger_ui
FNDA:0,_RNvNtNtCs4kTbYauoumE_12rust_backend3api7openapi20configure_swagger_ui
FNF:1
FNH:0
DA:56,0
DA:57,0
DA:58,0
DA:60,0
BRF:0
BRH:0
LF:4
LH:0
end_of_record
SF:/Users/mykolborghese/rust-backend/src/api/routes/admin.rs
FN:41,_RNvNtNtNtCscP9pq2ikS3v_12rust_backend3api6routes5admin10list_users
FN:86,_RNvNtNtNtCscP9pq2ikS3v_12rust_backend3api6routes5admin11delete_user
FN:192,_RNvNtNtNtCscP9pq2ikS3v_12rust_backend3api6routes5admin13require_admin
FN:99,_RNvNtNtNtCscP9pq2ikS3v_12rust_backend3api6routes5admin14list_equipment
FN:152,_RNvNtNtNtCscP9pq2ikS3v_12rust_backend3api6routes5admin15create_category
FN:179,_RNvNtNtNtCscP9pq2ikS3v_12rust_backend3api6routes5admin15delete_category
FN:143,_RNvNtNtNtCscP9pq2ikS3v_12rust_backend3api6routes5admin15list_categories
FN:165,_RNvNtNtNtCscP9pq2ikS3v_12rust_backend3api6routes5admin15update_category
FN:72,_RNvNtNtNtCscP9pq2ikS3v_12rust_backend3api6routes5admin16update_user_role
FN:116,_RNvNtNtNtCscP9pq2ikS3v_12rust_backend3api6routes5admin22force_delete_equipment
FN:129,_RNvNtNtNtCscP9pq2ikS3v_12rust_backend3api6routes5admin29toggle_equipment_availability
FN:59,_RNvNtNtNtCscP9pq2ikS3v_12rust_backend3api6routes5admin8get_user
FN:11,_RNvNtNtNtCscP9pq2ikS3v_12rust_backend3api6routes5admin9configure
FN:32,_RNvNtNtNtCscP9pq2ikS3v_12rust_backend3api6routes5admin9get_stats
FN:45,_RNCNvNtNtNtCscP9pq2ikS3v_12rust_backend3api6routes5admin10list_users0B9_
FN:90,_RNCNvNtNtNtCscP9pq2ikS3v_12rust_backend3api6routes5admin11delete_user0B9_
FN:103,_RNCNvNtNtNtCscP9pq2ikS3v_12rust_backend3api6routes5admin14list_equipment0B9_
FN:156,_RNCNvNtNtNtCscP9pq2ikS3v_12rust_backend3api6routes5admin15create_category0B9_
FN:183,_RNCNvNtNtNtCscP9pq2ikS3v_12rust_backend3api6routes5admin15delete_category0B9_
FN:146,_RNCNvNtNtNtCscP9pq2ikS3v_12rust_backend3api6routes5admin15list_categories0B9_
FN:170,_RNCNvNtNtNtCscP9pq2ikS3v_12rust_backend3api6routes5admin15update_category0B9_
FN:77,_RNCNvNtNtNtCscP9pq2ikS3v_12rust_backend3api6routes5admin16update_user_role0B9_
FN:120,_RNCNvNtNtNtCscP9pq2ikS3v_12rust_backend3api6routes5admin22force_delete_equipment0B9_
FN:134,_RNCNvNtNtNtCscP9pq2ikS3v_12rust_backend3api6routes5admin29toggle_equipment_availability0B9_
FN:63,_RNCNvNtNtNtCscP9pq2ikS3v_12rust_backend3api6routes5admin8get_user0B9_
FN:35,_RNCNvNtNtNtCscP9pq2ikS3v_12rust_backend3api6routes5admin9get_stats0B9_
FN:45,_RNCNvNtNtNtCs4kTbYauoumE_12rust_backend3api6routes5admin10list_users0B9_
FN:90,_RNCNvNtNtNtCs4kTbYauoumE_12rust_backend3api6routes5admin11delete_user0B9_
FN:103,_RNCNvNtNtNtCs4kTbYauoumE_12rust_backend3api6routes5admin14list_equipment0B9_
FN:156,_RNCNvNtNtNtCs4kTbYauoumE_12rust_backend3api6routes5admin15create_category0B9_
FN:183,_RNCNvNtNtNtCs4kTbYauoumE_12rust_backend3api6routes5admin15delete_category0B9_
FN:146,_RNCNvNtNtNtCs4kTbYauoumE_12rust_backend3api6routes5admin15list_categories0B9_
FN:170,_RNCNvNtNtNtCs4kTbYauoumE_12rust_backend3api6routes5admin15update_category0B9_
FN:77,_RNCNvNtNtNtCs4kTbYauoumE_12rust_backend3api6routes5admin16update_user_role0B9_
FN:120,_RNCNvNtNtNtCs4kTbYauoumE_12rust_backend3api6routes5admin22force_delete_equipment0B9_
FN:134,_RNCNvNtNtNtCs4kTbYauoumE_12rust_backend3api6routes5admin29toggle_equipment_availability0B9_
FN:63,_RNCNvNtNtNtCs4kTbYauoumE_12rust_backend3api6routes5admin8get_user0B9_
FN:35,_RNCNvNtNtNtCs4kTbYauoumE_12rust_backend3api6routes5admin9get_stats0B9_
FN:41,_RNvNtNtNtCs4kTbYauoumE_12rust_backend3api6routes5admin10list_users
FN:86,_RNvNtNtNtCs4kTbYauoumE_12rust_backend3api6routes5admin11delete_user
FN:192,_RNvNtNtNtCs4kTbYauoumE_12rust_backend3api6routes5admin13require_admin
FN:99,_RNvNtNtNtCs4kTbYauoumE_12rust_backend3api6routes5admin14list_equipment
FN:152,_RNvNtNtNtCs4kTbYauoumE_12rust_backend3api6routes5admin15create_category
FN:179,_RNvNtNtNtCs4kTbYauoumE_12rust_backend3api6routes5admin15delete_category
FN:143,_RNvNtNtNtCs4kTbYauoumE_12rust_backend3api6routes5admin15list_categories
FN:165,_RNvNtNtNtCs4kTbYauoumE_12rust_backend3api6routes5admin15update_category
FN:72,_RNvNtNtNtCs4kTbYauoumE_12rust_backend3api6routes5admin16update_user_role
FN:116,_RNvNtNtNtCs4kTbYauoumE_12rust_backend3api6routes5admin22force_delete_equipment
FN:129,_RNvNtNtNtCs4kTbYauoumE_12rust_backend3api6routes5admin29toggle_equipment_availability
FN:59,_RNvNtNtNtCs4kTbYauoumE_12rust_backend3api6routes5admin8get_user
FN:11,_RNvNtNtNtCs4kTbYauoumE_12rust_backend3api6routes5admin9configure
FN:32,_RNvNtNtNtCs4kTbYauoumE_12rust_backend3api6routes5admin9get_stats
FNDA:0,_RNvNtNtNtCscP9pq2ikS3v_12rust_backend3api6routes5admin10list_users
FNDA:0,_RNvNtNtNtCscP9pq2ikS3v_12rust_backend3api6routes5admin11delete_user
FNDA:0,_RNvNtNtNtCscP9pq2ikS3v_12rust_backend3api6routes5admin13require_admin
FNDA:0,_RNvNtNtNtCscP9pq2ikS3v_12rust_backend3api6routes5admin14list_equipment
FNDA:0,_RNvNtNtNtCscP9pq2ikS3v_12rust_backend3api6routes5admin15create_category
FNDA:0,_RNvNtNtNtCscP9pq2ikS3v_12rust_backend3api6routes5admin15delete_category
FNDA:0,_RNvNtNtNtCscP9pq2ikS3v_12rust_backend3api6routes5admin15list_categories
FNDA:0,_RNvNtNtNtCscP9pq2ikS3v_12rust_backend3api6routes5admin15update_category
FNDA:0,_RNvNtNtNtCscP9pq2ikS3v_12rust_backend3api6routes5admin16update_user_role
FNDA:0,_RNvNtNtNtCscP9pq2ikS3v_12rust_backend3api6routes5admin22force_delete_equipment
FNDA:0,_RNvNtNtNtCscP9pq2ikS3v_12rust_backend3api6routes5admin29toggle_equipment_availability
FNDA:0,_RNvNtNtNtCscP9pq2ikS3v_12rust_backend3api6routes5admin8get_user
FNDA:0,_RNvNtNtNtCscP9pq2ikS3v_12rust_backend3api6routes5admin9configure
FNDA:0,_RNvNtNtNtCscP9pq2ikS3v_12rust_backend3api6routes5admin9get_stats
FNDA:0,_RNCNvNtNtNtCscP9pq2ikS3v_12rust_backend3api6routes5admin10list_users0B9_
FNDA:0,_RNCNvNtNtNtCscP9pq2ikS3v_12rust_backend3api6routes5admin11delete_user0B9_
FNDA:0,_RNCNvNtNtNtCscP9pq2ikS3v_12rust_backend3api6routes5admin14list_equipment0B9_
FNDA:0,_RNCNvNtNtNtCscP9pq2ikS3v_12rust_backend3api6routes5admin15create_category0B9_
FNDA:0,_RNCNvNtNtNtCscP9pq2ikS3v_12rust_backend3api6routes5admin15delete_category0B9_
FNDA:0,_RNCNvNtNtNtCscP9pq2ikS3v_12rust_backend3api6routes5admin15list_categories0B9_
FNDA:0,_RNCNvNtNtNtCscP9pq2ikS3v_12rust_backend3api6routes5admin15update_category0B9_
FNDA:0,_RNCNvNtNtNtCscP9pq2ikS3v_12rust_backend3api6routes5admin16update_user_role0B9_
FNDA:0,_RNCNvNtNtNtCscP9pq2ikS3v_12rust_backend3api6routes5admin22force_delete_equipment0B9_
FNDA:0,_RNCNvNtNtNtCscP9pq2ikS3v_12rust_backend3api6routes5admin29toggle_equipment_availability0B9_
FNDA:0,_RNCNvNtNtNtCscP9pq2ikS3v_12rust_backend3api6routes5admin8get_user0B9_
FNDA:0,_RNCNvNtNtNtCscP9pq2ikS3v_12rust_backend3api6routes5admin9get_stats0B9_
FNDA:0,_RNCNvNtNtNtCs4kTbYauoumE_12rust_backend3api6routes5admin10list_users0B9_
FNDA:0,_RNCNvNtNtNtCs4kTbYauoumE_12rust_backend3api6routes5admin11delete_user0B9_
FNDA:0,_RNCNvNtNtNtCs4kTbYauoumE_12rust_backend3api6routes5admin14list_equipment0B9_
FNDA:0,_RNCNvNtNtNtCs4kTbYauoumE_12rust_backend3api6routes5admin15create_category0B9_
FNDA:0,_RNCNvNtNtNtCs4kTbYauoumE_12rust_backend3api6routes5admin15delete_category0B9_
FNDA:0,_RNCNvNtNtNtCs4kTbYauoumE_12rust_backend3api6routes5admin15list_categories0B9_
FNDA:0,_RNCNvNtNtNtCs4kTbYauoumE_12rust_backend3api6routes5admin15update_category0B9_
FNDA:0,_RNCNvNtNtNtCs4kTbYauoumE_12rust_backend3api6routes5admin16update_user_role0B9_
FNDA:0,_RNCNvNtNtNtCs4kTbYauoumE_12rust_backend3api6routes5admin22force_delete_equipment0B9_
FNDA:0,_RNCNvNtNtNtCs4kTbYauoumE_12rust_backend3api6routes5admin29toggle_equipment_availability0B9_
FNDA:0,_RNCNvNtNtNtCs4kTbYauoumE_12rust_backend3api6routes5admin8get_user0B9_
FNDA:0,_RNCNvNtNtNtCs4kTbYauoumE_12rust_backend3api6routes5admin9get_stats0B9_
FNDA:0,_RNvNtNtNtCs4kTbYauoumE_12rust_backend3api6routes5admin10list_users
FNDA:0,_RNvNtNtNtCs4kTbYauoumE_12rust_backend3api6routes5admin11delete_user
FNDA:0,_RNvNtNtNtCs4kTbYauoumE_12rust_backend3api6routes5admin13require_admin
FNDA:0,_RNvNtNtNtCs4kTbYauoumE_12rust_backend3api6routes5admin14list_equipment
FNDA:0,_RNvNtNtNtCs4kTbYauoumE_12rust_backend3api6routes5admin15create_category
FNDA:0,_RNvNtNtNtCs4kTbYauoumE_12rust_backend3api6routes5admin15delete_category
FNDA:0,_RNvNtNtNtCs4kTbYauoumE_12rust_backend3api6routes5admin15list_categories
FNDA:0,_RNvNtNtNtCs4kTbYauoumE_12rust_backend3api6routes5admin15update_category
FNDA:0,_RNvNtNtNtCs4kTbYauoumE_12rust_backend3api6routes5admin16update_user_role
FNDA:0,_RNvNtNtNtCs4kTbYauoumE_12rust_backend3api6routes5admin22force_delete_equipment
FNDA:0,_RNvNtNtNtCs4kTbYauoumE_12rust_backend3api6routes5admin29toggle_equipment_availability
FNDA:0,_RNvNtNtNtCs4kTbYauoumE_12rust_backend3api6routes5admin8get_user
FNDA:0,_RNvNtNtNtCs4kTbYauoumE_12rust_backend3api6routes5admin9configure
FNDA:0,_RNvNtNtNtCs4kTbYauoumE_12rust_backend3api6routes5admin9get_stats
FNF:26
FNH:0
DA:11,0
DA:12,0
DA:13,0
DA:14,0
DA:15,0
DA:16,0
DA:17,0
DA:18,0
DA:19,0
DA:20,0
DA:21,0
DA:22,0
DA:23,0
DA:25,0
DA:26,0
DA:27,0
DA:28,0
DA:30,0
DA:32,0
DA:33,0
DA:34,0
DA:35,0
DA:36,0
DA:37,0
DA:38,0
DA:39,0
DA:41,0
DA:42,0
DA:43,0
DA:44,0
DA:45,0
DA:46,0
DA:47,0
DA:48,0
DA:49,0
DA:50,0
DA:51,0
DA:52,0
DA:53,0
DA:54,0
DA:55,0
DA:56,0
DA:57,0
DA:59,0
DA:60,0
DA:61,0
DA:62,0
DA:63,0
DA:64,0
DA:65,0
DA:66,0
DA:67,0
DA:68,0
DA:69,0
DA:70,0
DA:72,0
DA:73,0
DA:74,0
DA:75,0
DA:76,0
DA:77,0
DA:78,0
DA:79,0
DA:80,0
DA:81,0
DA:82,0
DA:83,0
DA:84,0
DA:86,0
DA:87,0
DA:88,0
DA:89,0
DA:90,0
DA:91,0
DA:92,0
DA:93,0
DA:94,0
DA:95,0
DA:96,0
DA:97,0
DA:99,0
DA:100,0
DA:101,0
DA:102,0
DA:103,0
DA:104,0
DA:105,0
DA:106,0
DA:107,0
DA:108,0
DA:109,0
DA:110,0
DA:111,0
DA:112,0
DA:113,0
DA:114,0
DA:116,0
DA:117,0
DA:118,0
DA:119,0
DA:120,0
DA:121,0
DA:122,0
DA:123,0
DA:124,0
DA:125,0
DA:126,0
DA:127,0
DA:129,0
DA:130,0
DA:131,0
DA:132,0
DA:133,0
DA:134,0
DA:135,0
DA:136,0
DA:137,0
DA:138,0
DA:139,0
DA:140,0
DA:141,0
DA:143,0
DA:144,0
DA:145,0
DA:146,0
DA:147,0
DA:148,0
DA:149,0
DA:150,0
DA:152,0
DA:153,0
DA:154,0
DA:155,0
DA:156,0
DA:157,0
DA:158,0
DA:159,0
DA:160,0
DA:161,0
DA:162,0
DA:163,0
DA:165,0
DA:166,0
DA:167,0
DA:168,0
DA:169,0
DA:170,0
DA:171,0
DA:172,0
DA:173,0
DA:174,0
DA:175,0
DA:176,0
DA:177,0
DA:179,0
DA:180,0
DA:181,0
DA:182,0
DA:183,0
DA:184,0
DA:185,0
DA:186,0
DA:187,0
DA:188,0
DA:189,0
DA:190,0
DA:192,0
DA:193,0
DA:194,0
DA:195,0
DA:196,0
DA:197,0
DA:198,0
DA:199,0
BRF:0
BRH:0
LF:186
LH:0
end_of_record
SF:/Users/mykolborghese/rust-backend/src/api/routes/auth.rs
FN:238,_RNCNCNvNtNtNtCscP9pq2ikS3v_12rust_backend3api6routes4auth11auth0_login00Bb_
FN:143,_RNCNCNvNtNtNtCscP9pq2ikS3v_12rust_backend3api6routes4auth12auth0_signup00Bb_
FN:188,_RNCNCNvNtNtNtCscP9pq2ikS3v_12rust_backend3api6routes4auth19provisioning_claims00Bb_
FN:192,_RNCNCNvNtNtNtCscP9pq2ikS3v_12rust_backend3api6routes4auth19provisioning_claimss1_00Bb_
FN:228,_RNCNvNtNtNtCscP9pq2ikS3v_12rust_backend3api6routes4auth11auth0_login0B9_
FN:119,_RNCNvNtNtNtCscP9pq2ikS3v_12rust_backend3api6routes4auth12auth0_signup0B9_
FN:38,_RNCNvNtNtNtCscP9pq2ikS3v_12rust_backend3api6routes4auth17validate_password0B9_
FN:48,_RNCNvNtNtNtCscP9pq2ikS3v_12rust_backend3api6routes4auth17validate_passwords0_0B9_
FN:53,_RNCNvNtNtNtCscP9pq2ikS3v_12rust_backend3api6routes4auth17validate_passwords1_0B9_
FN:43,_RNCNvNtNtNtCscP9pq2ikS3v_12rust_backend3api6routes4auth17validate_passwords_0B9_
FN:188,_RNCNvNtNtNtCscP9pq2ikS3v_12rust_backend3api6routes4auth19provisioning_claims0B9_
FN:191,_RNCNvNtNtNtCscP9pq2ikS3v_12rust_backend3api6routes4auth19provisioning_claimss0_0B9_
FN:192,_RNCNvNtNtNtCscP9pq2ikS3v_12rust_backend3api6routes4auth19provisioning_claimss1_0B9_
FN:193,_RNCNvNtNtNtCscP9pq2ikS3v_12rust_backend3api6routes4auth19provisioning_claimss2_0B9_
FN:189,_RNCNvNtNtNtCscP9pq2ikS3v_12rust_backend3api6routes4auth19provisioning_claimss_0B9_
FN:94,_RNCNvNtNtNtCscP9pq2ikS3v_12rust_backend3api6routes4auth2me0B9_
FN:224,_RNvNtNtNtCscP9pq2ikS3v_12rust_backend3api6routes4auth11auth0_login
FN:115,_RNvNtNtNtCscP9pq2ikS3v_12rust_backend3api6routes4auth12auth0_signup
FN:27,_RNvNtNtNtCscP9pq2ikS3v_12rust_backend3api6routes4auth17validate_password
FN:180,_RNvNtNtNtCscP9pq2ikS3v_12rust_backend3api6routes4auth19provisioning_claims
FN:94,_RNvNtNtNtCscP9pq2ikS3v_12rust_backend3api6routes4auth2me
FN:253,_RNvNtNtNtCscP9pq2ikS3v_12rust_backend3api6routes4auth9client_ip
FN:12,_RNvNtNtNtCscP9pq2ikS3v_12rust_backend3api6routes4auth9configure
FN:188,_RNCNCNvNtNtNtCs4kTbYauoumE_12rust_backend3api6routes4auth19provisioning_claims00Bb_
FN:192,_RNCNCNvNtNtNtCs4kTbYauoumE_12rust_backend3api6routes4auth19provisioning_claimss1_00Bb_
FN:188,_RNCNvNtNtNtCs4kTbYauoumE_12rust_backend3api6routes4auth19provisioning_claims0B9_
FN:191,_RNCNvNtNtNtCs4kTbYauoumE_12rust_backend3api6routes4auth19provisioning_claimss0_0B9_
FN:192,_RNCNvNtNtNtCs4kTbYauoumE_12rust_backend3api6routes4auth19provisioning_claimss1_0B9_
FN:193,_RNCNvNtNtNtCs4kTbYauoumE_12rust_backend3api6routes4auth19provisioning_claimss2_0B9_
FN:189,_RNCNvNtNtNtCs4kTbYauoumE_12rust_backend3api6routes4auth19provisioning_claimss_0B9_
FN:180,_RNvNtNtNtCs4kTbYauoumE_12rust_backend3api6routes4auth19provisioning_claims
FN:253,_RNvNtNtNtCs4kTbYauoumE_12rust_backend3api6routes4auth9client_ip
FN:238,_RNCNCNvNtNtNtCs4kTbYauoumE_12rust_backend3api6routes4auth11auth0_login00Bb_
FN:143,_RNCNCNvNtNtNtCs4kTbYauoumE_12rust_backend3api6routes4auth12auth0_signup00Bb_
FN:228,_RNCNvNtNtNtCs4kTbYauoumE_12rust_backend3api6routes4auth11auth0_login0B9_
FN:119,_RNCNvNtNtNtCs4kTbYauoumE_12rust_backend3api6routes4auth12auth0_signup0B9_
FN:38,_RNCNvNtNtNtCs4kTbYauoumE_12rust_backend3api6routes4auth17validate_password0B9_
FN:48,_RNCNvNtNtNtCs4kTbYauoumE_12rust_backend3api6routes4auth17validate_passwords0_0B9_
FN:53,_RNCNvNtNtNtCs4kTbYauoumE_12rust_backend3api6routes4auth17validate_passwords1_0B9_
FN:43,_RNCNvNtNtNtCs4kTbYauoumE_12rust_backend3api6routes4auth17validate_passwords_0B9_
FN:94,_RNCNvNtNtNtCs4kTbYauoumE_12rust_backend3api6routes4auth2me0B9_
FN:224,_RNvNtNtNtCs4kTbYauoumE_12rust_backend3api6routes4auth11auth0_login
FN:115,_RNvNtNtNtCs4kTbYauoumE_12rust_backend3api6routes4auth12auth0_signup
FN:27,_RNvNtNtNtCs4kTbYauoumE_12rust_backend3api6routes4auth17validate_password
FN:94,_RNvNtNtNtCs4kTbYauoumE_12rust_backend3api6routes4auth2me
FN:12,_RNvNtNtNtCs4kTbYauoumE_12rust_backend3api6routes4auth9configure
FN:274,_RNvNtNtNtNtCs4kTbYauoumE_12rust_backend3api6routes4auth5testss_45client_ip_uses_forwarded_address_when_present
FN:268,_RNvNtNtNtNtCs4kTbYauoumE_12rust_backend3api6routes4auth5testss_48client_ip_returns_none_without_forwarded_address
FN:320,_RNvNtNtNtNtCs4kTbYauoumE_12rust_backend3api6routes4auth5testss_51provisioning_claims_fall_back_to_auth_config_values
FN:358,_RNvNtNtNtNtCs4kTbYauoumE_12rust_backend3api6routes4auth5testss_52signup_request_validation_rejects_naive_at_dot_email
FN:282,_RNvNtNtNtNtCs4kTbYauoumE_12rust_backend3api6routes4auth5testss_58provisioning_claims_use_auth0_config_values_when_available
FNDA:0,_RNCNCNvNtNtNtCscP9pq2ikS3v_12rust_backend3api6routes4auth11auth0_login00Bb_
FNDA:0,_RNCNCNvNtNtNtCscP9pq2ikS3v_12rust_backend3api6routes4auth12auth0_signup00Bb_
FNDA:0,_RNCNCNvNtNtNtCscP9pq2ikS3v_12rust_backend3api6routes4auth19provisioning_claims00Bb_
FNDA:0,_RNCNCNvNtNtNtCscP9pq2ikS3v_12rust_backend3api6routes4auth19provisioning_claimss1_00Bb_
FNDA:0,_RNCNvNtNtNtCscP9pq2ikS3v_12rust_backend3api6routes4auth11auth0_login0B9_
FNDA:0,_RNCNvNtNtNtCscP9pq2ikS3v_12rust_backend3api6routes4auth12auth0_signup0B9_
FNDA:0,_RNCNvNtNtNtCscP9pq2ikS3v_12rust_backend3api6routes4auth17validate_password0B9_
FNDA:0,_RNCNvNtNtNtCscP9pq2ikS3v_12rust_backend3api6routes4auth17validate_passwords0_0B9_
FNDA:0,_RNCNvNtNtNtCscP9pq2ikS3v_12rust_backend3api6routes4auth17validate_passwords1_0B9_
FNDA:0,_RNCNvNtNtNtCscP9pq2ikS3v_12rust_backend3api6routes4auth17validate_passwords_0B9_
FNDA:0,_RNCNvNtNtNtCscP9pq2ikS3v_12rust_backend3api6routes4auth19provisioning_claims0B9_
FNDA:0,_RNCNvNtNtNtCscP9pq2ikS3v_12rust_backend3api6routes4auth19provisioning_claimss0_0B9_
FNDA:0,_RNCNvNtNtNtCscP9pq2ikS3v_12rust_backend3api6routes4auth19provisioning_claimss1_0B9_
FNDA:0,_RNCNvNtNtNtCscP9pq2ikS3v_12rust_backend3api6routes4auth19provisioning_claimss2_0B9_
FNDA:0,_RNCNvNtNtNtCscP9pq2ikS3v_12rust_backend3api6routes4auth19provisioning_claimss_0B9_
FNDA:0,_RNCNvNtNtNtCscP9pq2ikS3v_12rust_backend3api6routes4auth2me0B9_
FNDA:0,_RNvNtNtNtCscP9pq2ikS3v_12rust_backend3api6routes4auth11auth0_login
FNDA:0,_RNvNtNtNtCscP9pq2ikS3v_12rust_backend3api6routes4auth12auth0_signup
FNDA:0,_RNvNtNtNtCscP9pq2ikS3v_12rust_backend3api6routes4auth17validate_password
FNDA:0,_RNvNtNtNtCscP9pq2ikS3v_12rust_backend3api6routes4auth19provisioning_claims
FNDA:0,_RNvNtNtNtCscP9pq2ikS3v_12rust_backend3api6routes4auth2me
FNDA:0,_RNvNtNtNtCscP9pq2ikS3v_12rust_backend3api6routes4auth9client_ip
FNDA:0,_RNvNtNtNtCscP9pq2ikS3v_12rust_backend3api6routes4auth9configure
FNDA:1,_RNCNCNvNtNtNtCs4kTbYauoumE_12rust_backend3api6routes4auth19provisioning_claims00Bb_
FNDA:1,_RNCNCNvNtNtNtCs4kTbYauoumE_12rust_backend3api6routes4auth19provisioning_claimss1_00Bb_
FNDA:1,_RNCNvNtNtNtCs4kTbYauoumE_12rust_backend3api6routes4auth19provisioning_claims0B9_
FNDA:1,_RNCNvNtNtNtCs4kTbYauoumE_12rust_backend3api6routes4auth19provisioning_claimss0_0B9_
FNDA:1,_RNCNvNtNtNtCs4kTbYauoumE_12rust_backend3api6routes4auth19provisioning_claimss1_0B9_
FNDA:0,_RNCNvNtNtNtCs4kTbYauoumE_12rust_backend3api6routes4auth19provisioning_claimss2_0B9_
FNDA:0,_RNCNvNtNtNtCs4kTbYauoumE_12rust_backend3api6routes4auth19provisioning_claimss_0B9_
FNDA:2,_RNvNtNtNtCs4kTbYauoumE_12rust_backend3api6routes4auth19provisioning_claims
FNDA:2,_RNvNtNtNtCs4kTbYauoumE_12rust_backend3api6routes4auth9client_ip
FNDA:0,_RNCNCNvNtNtNtCs4kTbYauoumE_12rust_backend3api6routes4auth11auth0_login00Bb_
FNDA:0,_RNCNCNvNtNtNtCs4kTbYauoumE_12rust_backend3api6routes4auth12auth0_signup00Bb_
FNDA:0,_RNCNvNtNtNtCs4kTbYauoumE_12rust_backend3api6routes4auth11auth0_login0B9_
FNDA:0,_RNCNvNtNtNtCs4kTbYauoumE_12rust_backend3api6routes4auth12auth0_signup0B9_
FNDA:0,_RNCNvNtNtNtCs4kTbYauoumE_12rust_backend3api6routes4auth17validate_password0B9_
FNDA:0,_RNCNvNtNtNtCs4kTbYauoumE_12rust_backend3api6routes4auth17validate_passwords0_0B9_
FNDA:0,_RNCNvNtNtNtCs4kTbYauoumE_12rust_backend3api6routes4auth17validate_passwords1_0B9_
FNDA:0,_RNCNvNtNtNtCs4kTbYauoumE_12rust_backend3api6routes4auth17validate_passwords_0B9_
FNDA:0,_RNCNvNtNtNtCs4kTbYauoumE_12rust_backend3api6routes4auth2me0B9_
FNDA:0,_RNvNtNtNtCs4kTbYauoumE_12rust_backend3api6routes4auth11auth0_login
FNDA:0,_RNvNtNtNtCs4kTbYauoumE_12rust_backend3api6routes4auth12auth0_signup
FNDA:0,_RNvNtNtNtCs4kTbYauoumE_12rust_backend3api6routes4auth17validate_password
FNDA:0,_RNvNtNtNtCs4kTbYauoumE_12rust_backend3api6routes4auth2me
FNDA:0,_RNvNtNtNtCs4kTbYauoumE_12rust_backend3api6routes4auth9configure
FNDA:1,_RNvNtNtNtNtCs4kTbYauoumE_12rust_backend3api6routes4auth5testss_45client_ip_uses_forwarded_address_when_present
FNDA:1,_RNvNtNtNtNtCs4kTbYauoumE_12rust_backend3api6routes4auth5testss_48client_ip_returns_none_without_forwarded_address
FNDA:1,_RNvNtNtNtNtCs4kTbYauoumE_12rust_backend3api6routes4auth5testss_51provisioning_claims_fall_back_to_auth_config_values
FNDA:1,_RNvNtNtNtNtCs4kTbYauoumE_12rust_backend3api6routes4auth5testss_52signup_request_validation_rejects_naive_at_dot_email
FNDA:1,_RNvNtNtNtNtCs4kTbYauoumE_12rust_backend3api6routes4auth5testss_58provisioning_claims_use_auth0_config_values_when_available
FNF:28
FNH:12
DA:12,0
DA:13,0
DA:14,0
DA:15,0
DA:16,0
DA:17,0
DA:19,0
DA:27,0
DA:29,0
DA:30,0
DA:31,0
DA:32,0
DA:33,0
DA:34,0
DA:35,0
DA:38,0
DA:39,0
DA:40,0
DA:43,0
DA:44,0
DA:45,0
DA:48,0
DA:49,0
DA:50,0
DA:53,0
DA:54,0
DA:55,0
DA:56,0
DA:57,0
DA:60,0
DA:61,0
DA:62,0
DA:64,0
DA:65,0
DA:66,0
DA:69,0
DA:70,0
DA:71,0
DA:72,0
DA:73,0
DA:74,0
DA:76,0
DA:77,0
DA:79,0
DA:80,0
DA:94,0
DA:95,0
DA:96,0
DA:97,0
DA:115,0
DA:116,0
DA:117,0
DA:118,0
DA:119,0
DA:120,0
DA:121,0
DA:125,0
DA:128,0
DA:130,0
DA:131,0
DA:132,0
DA:135,0
DA:136,0
DA:137,0
DA:138,0
DA:139,0
DA:140,0
DA:141,0
DA:142,0
DA:143,0
DA:145,0
DA:146,0
DA:149,0
DA:150,0
DA:152,0
DA:154,0
DA:159,0
DA:160,0
DA:161,0
DA:162,0
DA:163,0
DA:164,0
DA:165,0
DA:166,0
DA:170,0
DA:173,0
DA:174,0
DA:175,0
DA:176,0
DA:177,0
DA:178,0
DA:180,2
DA:181,2
DA:182,2
DA:183,2
DA:184,2
DA:185,2
DA:186,2
DA:187,2
DA:188,2
DA:189,2
DA:190,2
DA:191,2
DA:192,2
DA:193,2
DA:195,2
DA:196,2
DA:197,2
DA:198,2
DA:199,2
DA:200,2
DA:201,2
DA:202,2
DA:203,2
DA:204,2
DA:205,2
DA:206,2
DA:207,2
DA:224,0
DA:225,0
DA:226,0
DA:227,0
DA:228,0
DA:229,0
DA:230,0
DA:231,0
DA:234,0
DA:235,0
DA:236,0
DA:237,0
DA:238,0
DA:239,0
DA:240,0
DA:242,0
DA:244,0
DA:245,0
DA:246,0
DA:247,0
DA:248,0
DA:249,0
DA:250,0
DA:251,0
DA:253,2
DA:254,2
DA:255,2
DA:256,2
DA:257,2
DA:258,2
DA:268,1
DA:269,1
DA:270,1
DA:271,1
DA:274,1
DA:275,1
DA:276,1
DA:277,1
DA:278,1
DA:279,1
DA:282,1
DA:283,1
DA:284,1
DA:285,1
DA:286,1
DA:287,1
DA:288,1
DA:289,1
DA:290,1
DA:291,1
DA:292,1
DA:293,1
DA:294,1
DA:295,1
DA:296,1
DA:297,1
DA:298,1
DA:299,1
DA:300,1
DA:301,1
DA:302,1
DA:303,1
DA:304,1
DA:305,1
DA:306,1
DA:308,1
DA:310,1
DA:311,1
DA:312,1
DA:313,0
DA:315,1
DA:316,1
DA:317,1
DA:320,1
DA:321,1
DA:322,1
DA:323,1
DA:324,1
DA:325,1
DA:326,1
DA:327,1
DA:328,1
DA:329,1
DA:330,1
DA:331,1
DA:332,1
DA:333,1
DA:334,1
DA:335,1
DA:336,1
DA:337,1
DA:338,1
DA:339,1
DA:340,1
DA:341,1
DA:342,1
DA:343,1
DA:344,1
DA:345,1
DA:347,1
DA:349,1
DA:350,1
DA:351,1
DA:352,0
DA:354,1
DA:355,1
DA:358,1
DA:359,1
DA:360,1
DA:361,1
DA:362,1
DA:363,1
DA:364,1
DA:366,1
DA:367,1
DA:368,1
BRF:0
BRH:0
LF:252
LH:122
end_of_record
SF:/Users/mykolborghese/rust-backend/src/api/routes/equipment.rs
FN:183,_RNvNtNtNtCscP9pq2ikS3v_12rust_backend3api6routes9equipment12delete_photo
FN:222,_RNvNtNtNtCscP9pq2ikS3v_12rust_backend3api6routes9equipment12get_category
FN:67,_RNvNtNtNtCscP9pq2ikS3v_12rust_backend3api6routes9equipment13get_equipment
FN:38,_RNvNtNtNtCscP9pq2ikS3v_12rust_backend3api6routes9equipment14list_equipment
FN:205,_RNvNtNtNtCscP9pq2ikS3v_12rust_backend3api6routes9equipment15list_categories
FN:89,_RNvNtNtNtCscP9pq2ikS3v_12rust_backend3api6routes9equipment16create_equipment
FN:156,_RNvNtNtNtCscP9pq2ikS3v_12rust_backend3api6routes9equipment16delete_equipment
FN:125,_RNvNtNtNtCscP9pq2ikS3v_12rust_backend3api6routes9equipment16update_equipment
FN:169,_RNvNtNtNtCscP9pq2ikS3v_12rust_backend3api6routes9equipment9add_photo
FN:230,_RNvNtNtNtCscP9pq2ikS3v_12rust_backend3api6routes9equipment9client_ip
FN:11,_RNvNtNtNtCscP9pq2ikS3v_12rust_backend3api6routes9equipment9configure
FN:187,_RNCNvNtNtNtCscP9pq2ikS3v_12rust_backend3api6routes9equipment12delete_photo0B9_
FN:225,_RNCNvNtNtNtCscP9pq2ikS3v_12rust_backend3api6routes9equipment12get_category0B9_
FN:70,_RNCNvNtNtNtCscP9pq2ikS3v_12rust_backend3api6routes9equipment13get_equipment0B9_
FN:42,_RNCNvNtNtNtCscP9pq2ikS3v_12rust_backend3api6routes9equipment14list_equipment0B9_
FN:205,_RNCNvNtNtNtCscP9pq2ikS3v_12rust_backend3api6routes9equipment15list_categories0B9_
FN:93,_RNCNvNtNtNtCscP9pq2ikS3v_12rust_backend3api6routes9equipment16create_equipment0B9_
FN:160,_RNCNvNtNtNtCscP9pq2ikS3v_12rust_backend3api6routes9equipment16delete_equipment0B9_
FN:130,_RNCNvNtNtNtCscP9pq2ikS3v_12rust_backend3api6routes9equipment16update_equipment0B9_
FN:174,_RNCNvNtNtNtCscP9pq2ikS3v_12rust_backend3api6routes9equipment9add_photo0B9_
FN:187,_RNCNvNtNtNtCs4kTbYauoumE_12rust_backend3api6routes9equipment12delete_photo0B9_
FN:225,_RNCNvNtNtNtCs4kTbYauoumE_12rust_backend3api6routes9equipment12get_category0B9_
FN:70,_RNCNvNtNtNtCs4kTbYauoumE_12rust_backend3api6routes9equipment13get_equipment0B9_
FN:42,_RNCNvNtNtNtCs4kTbYauoumE_12rust_backend3api6routes9equipment14list_equipment0B9_
FN:205,_RNCNvNtNtNtCs4kTbYauoumE_12rust_backend3api6routes9equipment15list_categories0B9_
FN:93,_RNCNvNtNtNtCs4kTbYauoumE_12rust_backend3api6routes9equipment16create_equipment0B9_
FN:160,_RNCNvNtNtNtCs4kTbYauoumE_12rust_backend3api6routes9equipment16delete_equipment0B9_
FN:130,_RNCNvNtNtNtCs4kTbYauoumE_12rust_backend3api6routes9equipment16update_equipment0B9_
FN:174,_RNCNvNtNtNtCs4kTbYauoumE_12rust_backend3api6routes9equipment9add_photo0B9_
FN:183,_RNvNtNtNtCs4kTbYauoumE_12rust_backend3api6routes9equipment12delete_photo
FN:222,_RNvNtNtNtCs4kTbYauoumE_12rust_backend3api6routes9equipment12get_category
FN:67,_RNvNtNtNtCs4kTbYauoumE_12rust_backend3api6routes9equipment13get_equipment
FN:38,_RNvNtNtNtCs4kTbYauoumE_12rust_backend3api6routes9equipment14list_equipment
FN:205,_RNvNtNtNtCs4kTbYauoumE_12rust_backend3api6routes9equipment15list_categories
FN:89,_RNvNtNtNtCs4kTbYauoumE_12rust_backend3api6routes9equipment16create_equipment
FN:156,_RNvNtNtNtCs4kTbYauoumE_12rust_backend3api6routes9equipment16delete_equipment
FN:125,_RNvNtNtNtCs4kTbYauoumE_12rust_backend3api6routes9equipment16update_equipment
FN:169,_RNvNtNtNtCs4kTbYauoumE_12rust_backend3api6routes9equipment9add_photo
FN:230,_RNvNtNtNtCs4kTbYauoumE_12rust_backend3api6routes9equipment9client_ip
FN:11,_RNvNtNtNtCs4kTbYauoumE_12rust_backend3api6routes9equipment9configure
FNDA:0,_RNvNtNtNtCscP9pq2ikS3v_12rust_backend3api6routes9equipment12delete_photo
FNDA:0,_RNvNtNtNtCscP9pq2ikS3v_12rust_backend3api6routes9equipment12get_category
FNDA:0,_RNvNtNtNtCscP9pq2ikS3v_12rust_backend3api6routes9equipment13get_equipment
FNDA:0,_RNvNtNtNtCscP9pq2ikS3v_12rust_backend3api6routes9equipment14list_equipment
FNDA:0,_RNvNtNtNtCscP9pq2ikS3v_12rust_backend3api6routes9equipment15list_categories
FNDA:0,_RNvNtNtNtCscP9pq2ikS3v_12rust_backend3api6routes9equipment16create_equipment
FNDA:0,_RNvNtNtNtCscP9pq2ikS3v_12rust_backend3api6routes9equipment16delete_equipment
FNDA:0,_RNvNtNtNtCscP9pq2ikS3v_12rust_backend3api6routes9equipment16update_equipment
FNDA:0,_RNvNtNtNtCscP9pq2ikS3v_12rust_backend3api6routes9equipment9add_photo
FNDA:0,_RNvNtNtNtCscP9pq2ikS3v_12rust_backend3api6routes9equipment9client_ip
FNDA:0,_RNvNtNtNtCscP9pq2ikS3v_12rust_backend3api6routes9equipment9configure
FNDA:0,_RNCNvNtNtNtCscP9pq2ikS3v_12rust_backend3api6routes9equipment12delete_photo0B9_
FNDA:0,_RNCNvNtNtNtCscP9pq2ikS3v_12rust_backend3api6routes9equipment12get_category0B9_
FNDA:0,_RNCNvNtNtNtCscP9pq2ikS3v_12rust_backend3api6routes9equipment13get_equipment0B9_
FNDA:0,_RNCNvNtNtNtCscP9pq2ikS3v_12rust_backend3api6routes9equipment14list_equipment0B9_
FNDA:0,_RNCNvNtNtNtCscP9pq2ikS3v_12rust_backend3api6routes9equipment15list_categories0B9_
FNDA:0,_RNCNvNtNtNtCscP9pq2ikS3v_12rust_backend3api6routes9equipment16create_equipment0B9_
FNDA:0,_RNCNvNtNtNtCscP9pq2ikS3v_12rust_backend3api6routes9equipment16delete_equipment0B9_
FNDA:0,_RNCNvNtNtNtCscP9pq2ikS3v_12rust_backend3api6routes9equipment16update_equipment0B9_
FNDA:0,_RNCNvNtNtNtCscP9pq2ikS3v_12rust_backend3api6routes9equipment9add_photo0B9_
FNDA:0,_RNCNvNtNtNtCs4kTbYauoumE_12rust_backend3api6routes9equipment12delete_photo0B9_
FNDA:0,_RNCNvNtNtNtCs4kTbYauoumE_12rust_backend3api6routes9equipment12get_category0B9_
FNDA:0,_RNCNvNtNtNtCs4kTbYauoumE_12rust_backend3api6routes9equipment13get_equipment0B9_
FNDA:0,_RNCNvNtNtNtCs4kTbYauoumE_12rust_backend3api6routes9equipment14list_equipment0B9_
FNDA:0,_RNCNvNtNtNtCs4kTbYauoumE_12rust_backend3api6routes9equipment15list_categories0B9_
FNDA:0,_RNCNvNtNtNtCs4kTbYauoumE_12rust_backend3api6routes9equipment16create_equipment0B9_
FNDA:0,_RNCNvNtNtNtCs4kTbYauoumE_12rust_backend3api6routes9equipment16delete_equipment0B9_
FNDA:0,_RNCNvNtNtNtCs4kTbYauoumE_12rust_backend3api6routes9equipment16update_equipment0B9_
FNDA:0,_RNCNvNtNtNtCs4kTbYauoumE_12rust_backend3api6routes9equipment9add_photo0B9_
FNDA:0,_RNvNtNtNtCs4kTbYauoumE_12rust_backend3api6routes9equipment12delete_photo
FNDA:0,_RNvNtNtNtCs4kTbYauoumE_12rust_backend3api6routes9equipment12get_category
FNDA:0,_RNvNtNtNtCs4kTbYauoumE_12rust_backend3api6routes9equipment13get_equipment
FNDA:0,_RNvNtNtNtCs4kTbYauoumE_12rust_backend3api6routes9equipment14list_equipment
FNDA:0,_RNvNtNtNtCs4kTbYauoumE_12rust_backend3api6routes9equipment15list_categories
FNDA:0,_RNvNtNtNtCs4kTbYauoumE_12rust_backend3api6routes9equipment16create_equipment
FNDA:0,_RNvNtNtNtCs4kTbYauoumE_12rust_backend3api6routes9equipment16delete_equipment
FNDA:0,_RNvNtNtNtCs4kTbYauoumE_12rust_backend3api6routes9equipment16update_equipment
FNDA:0,_RNvNtNtNtCs4kTbYauoumE_12rust_backend3api6routes9equipment9add_photo
FNDA:0,_RNvNtNtNtCs4kTbYauoumE_12rust_backend3api6routes9equipment9client_ip
FNDA:0,_RNvNtNtNtCs4kTbYauoumE_12rust_backend3api6routes9equipment9configure
FNF:20
FNH:0
DA:11,0
DA:12,0
DA:13,0
DA:14,0
DA:15,0
DA:16,0
DA:17,0
DA:18,0
DA:19,0
DA:20,0
DA:21,0
DA:22,0
DA:23,0
DA:24,0
DA:25,0
DA:27,0
DA:38,0
DA:39,0
DA:40,0
DA:41,0
DA:42,0
DA:43,0
DA:44,0
DA:45,0
DA:46,0
DA:47,0
DA:48,0
DA:49,0
DA:51,0
DA:52,0
DA:53,0
DA:67,0
DA:68,0
DA:69,0
DA:70,0
DA:71,0
DA:72,0
DA:73,0
DA:89,0
DA:90,0
DA:91,0
DA:92,0
DA:93,0
DA:94,0
DA:95,0
DA:96,0
DA:97,0
DA:98,0
DA:99,0
DA:100,0
DA:101,0
DA:102,0
DA:103,0
DA:104,0
DA:105,0
DA:125,0
DA:126,0
DA:127,0
DA:128,0
DA:129,0
DA:130,0
DA:131,0
DA:132,0
DA:133,0
DA:134,0
DA:135,0
DA:136,0
DA:137,0
DA:156,0
DA:157,0
DA:158,0
DA:159,0
DA:160,0
DA:161,0
DA:162,0
DA:163,0
DA:164,0
DA:165,0
DA:166,0
DA:167,0
DA:169,0
DA:170,0
DA:171,0
DA:172,0
DA:173,0
DA:174,0
DA:175,0
DA:176,0
DA:177,0
DA:178,0
DA:179,0
DA:180,0
DA:181,0
DA:183,0
DA:184,0
DA:185,0
DA:186,0
DA:187,0
DA:188,0
DA:189,0
DA:190,0
DA:191,0
DA:192,0
DA:193,0
DA:194,0
DA:195,0
DA:205,0
DA:206,0
DA:207,0
DA:208,0
DA:222,0
DA:223,0
DA:224,0
DA:225,0
DA:226,0
DA:227,0
DA:228,0
DA:230,0
DA:231,0
DA:232,0
DA:233,0
DA:234,0
DA:235,0
BRF:0
BRH:0
LF:132
LH:0
end_of_record
SF:/Users/mykolborghese/rust-backend/src/api/routes/messages.rs
FN:87,_RNvNtNtNtCscP9pq2ikS3v_12rust_backend3api6routes8messages12send_message
FN:62,_RNvNtNtNtCscP9pq2ikS3v_12rust_backend3api6routes8messages13list_messages
FN:50,_RNvNtNtNtCscP9pq2ikS3v_12rust_backend3api6routes8messages16get_conversation
FN:27,_RNvNtNtNtCscP9pq2ikS3v_12rust_backend3api6routes8messages18list_conversations
FN:38,_RNvNtNtNtCscP9pq2ikS3v_12rust_backend3api6routes8messages19create_conversation
FN:16,_RNvNtNtNtCscP9pq2ikS3v_12rust_backend3api6routes8messages9configure
FN:92,_RNCNvNtNtNtCscP9pq2ikS3v_12rust_backend3api6routes8messages12send_message0B9_
FN:67,_RNCNvNtNtNtCscP9pq2ikS3v_12rust_backend3api6routes8messages13list_messages0B9_
FN:54,_RNCNvNtNtNtCscP9pq2ikS3v_12rust_backend3api6routes8messages16get_conversation0B9_
FN:30,_RNCNvNtNtNtCscP9pq2ikS3v_12rust_backend3api6routes8messages18list_conversations0B9_
FN:42,_RNCNvNtNtNtCscP9pq2ikS3v_12rust_backend3api6routes8messages19create_conversation0B9_
FN:92,_RNCNvNtNtNtCs4kTbYauoumE_12rust_backend3api6routes8messages12send_message0B9_
FN:67,_RNCNvNtNtNtCs4kTbYauoumE_12rust_backend3api6routes8messages13list_messages0B9_
FN:54,_RNCNvNtNtNtCs4kTbYauoumE_12rust_backend3api6routes8messages16get_conversation0B9_
FN:30,_RNCNvNtNtNtCs4kTbYauoumE_12rust_backend3api6routes8messages18list_conversations0B9_
FN:42,_RNCNvNtNtNtCs4kTbYauoumE_12rust_backend3api6routes8messages19create_conversation0B9_
FN:87,_RNvNtNtNtCs4kTbYauoumE_12rust_backend3api6routes8messages12send_message
FN:62,_RNvNtNtNtCs4kTbYauoumE_12rust_backend3api6routes8messages13list_messages
FN:50,_RNvNtNtNtCs4kTbYauoumE_12rust_backend3api6routes8messages16get_conversation
FN:27,_RNvNtNtNtCs4kTbYauoumE_12rust_backend3api6routes8messages18list_conversations
FN:38,_RNvNtNtNtCs4kTbYauoumE_12rust_backend3api6routes8messages19create_conversation
FN:16,_RNvNtNtNtCs4kTbYauoumE_12rust_backend3api6routes8messages9configure
FNDA:0,_RNvNtNtNtCscP9pq2ikS3v_12rust_backend3api6routes8messages12send_message
FNDA:0,_RNvNtNtNtCscP9pq2ikS3v_12rust_backend3api6routes8messages13list_messages
FNDA:0,_RNvNtNtNtCscP9pq2ikS3v_12rust_backend3api6routes8messages16get_conversation
FNDA:0,_RNvNtNtNtCscP9pq2ikS3v_12rust_backend3api6routes8messages18list_conversations
FNDA:0,_RNvNtNtNtCscP9pq2ikS3v_12rust_backend3api6routes8messages19create_conversation
FNDA:0,_RNvNtNtNtCscP9pq2ikS3v_12rust_backend3api6routes8messages9configure
FNDA:0,_RNCNvNtNtNtCscP9pq2ikS3v_12rust_backend3api6routes8messages12send_message0B9_
FNDA:0,_RNCNvNtNtNtCscP9pq2ikS3v_12rust_backend3api6routes8messages13list_messages0B9_
FNDA:0,_RNCNvNtNtNtCscP9pq2ikS3v_12rust_backend3api6routes8messages16get_conversation0B9_
FNDA:0,_RNCNvNtNtNtCscP9pq2ikS3v_12rust_backend3api6routes8messages18list_conversations0B9_
FNDA:0,_RNCNvNtNtNtCscP9pq2ikS3v_12rust_backend3api6routes8messages19create_conversation0B9_
FNDA:0,_RNCNvNtNtNtCs4kTbYauoumE_12rust_backend3api6routes8messages12send_message0B9_
FNDA:0,_RNCNvNtNtNtCs4kTbYauoumE_12rust_backend3api6routes8messages13list_messages0B9_
FNDA:0,_RNCNvNtNtNtCs4kTbYauoumE_12rust_backend3api6routes8messages16get_conversation0B9_
FNDA:0,_RNCNvNtNtNtCs4kTbYauoumE_12rust_backend3api6routes8messages18list_conversations0B9_
FNDA:0,_RNCNvNtNtNtCs4kTbYauoumE_12rust_backend3api6routes8messages19create_conversation0B9_
FNDA:0,_RNvNtNtNtCs4kTbYauoumE_12rust_backend3api6routes8messages12send_message
FNDA:0,_RNvNtNtNtCs4kTbYauoumE_12rust_backend3api6routes8messages13list_messages
FNDA:0,_RNvNtNtNtCs4kTbYauoumE_12rust_backend3api6routes8messages16get_conversation
FNDA:0,_RNvNtNtNtCs4kTbYauoumE_12rust_backend3api6routes8messages18list_conversations
FNDA:0,_RNvNtNtNtCs4kTbYauoumE_12rust_backend3api6routes8messages19create_conversation
FNDA:0,_RNvNtNtNtCs4kTbYauoumE_12rust_backend3api6routes8messages9configure
FNF:11
FNH:0
DA:16,0
DA:17,0
DA:18,0
DA:19,0
DA:20,0
DA:21,0
DA:22,0
DA:23,0
DA:25,0
DA:27,0
DA:28,0
DA:29,0
DA:30,0
DA:31,0
DA:32,0
DA:33,0
DA:34,0
DA:35,0
DA:36,0
DA:38,0
DA:39,0
DA:40,0
DA:41,0
DA:42,0
DA:43,0
DA:44,0
DA:45,0
DA:46,0
DA:47,0
DA:48,0
DA:50,0
DA:51,0
DA:52,0
DA:53,0
DA:54,0
DA:55,0
DA:56,0
DA:57,0
DA:58,0
DA:59,0
DA:60,0
DA:62,0
DA:63,0
DA:64,0
DA:65,0
DA:66,0
DA:67,0
DA:68,0
DA:70,0
DA:71,0
DA:72,0
DA:73,0
DA:74,0
DA:75,0
DA:76,0
DA:77,0
DA:78,0
DA:79,0
DA:80,0
DA:81,0
DA:82,0
DA:83,0
DA:84,0
DA:85,0
DA:87,0
DA:88,0
DA:89,0
DA:90,0
DA:91,0
DA:92,0
DA:93,0
DA:94,0
DA:95,0
DA:96,0
DA:98,0
DA:99,0
DA:100,0
DA:102,0
DA:103,0
DA:104,0
DA:105,0
DA:107,0
DA:108,0
BRF:0
BRH:0
LF:88
LH:0
end_of_record
SF:/Users/mykolborghese/rust-backend/src/api/routes/mod.rs
FN:80,_RNCNCNvNtNtCscP9pq2ikS3v_12rust_backend3api6routes5ready00B9_
FN:91,_RNCNCNvNtNtCscP9pq2ikS3v_12rust_backend3api6routes7metrics00B9_
FN:108,_RNCNCNvNtNtCscP9pq2ikS3v_12rust_backend3api6routes7metrics0s0_0B9_
FN:96,_RNCNCNvNtNtCscP9pq2ikS3v_12rust_backend3api6routes7metrics0s_0B9_
FN:75,_RNCNvNtNtCscP9pq2ikS3v_12rust_backend3api6routes5ready0B7_
FN:62,_RNCNvNtNtCscP9pq2ikS3v_12rust_backend3api6routes6health0B7_
FN:86,_RNCNvNtNtCscP9pq2ikS3v_12rust_backend3api6routes7metrics0B7_
FN:129,_RNvNtNtCscP9pq2ikS3v_12rust_backend3api6routes10pool_stats
FN:122,_RNvNtNtCscP9pq2ikS3v_12rust_backend3api6routes22is_private_or_loopback
FN:75,_RNvNtNtCscP9pq2ikS3v_12rust_backend3api6routes5ready
FN:62,_RNvNtNtCscP9pq2ikS3v_12rust_backend3api6routes6health
FN:86,_RNvNtNtCscP9pq2ikS3v_12rust_backend3api6routes7metrics
FN:39,_RNvNtNtCscP9pq2ikS3v_12rust_backend3api6routes9configure
FN:122,_RNvNtNtCs4kTbYauoumE_12rust_backend3api6routes22is_private_or_loopback
FN:140,_RNvNtNtNtCs4kTbYauoumE_12rust_backend3api6routes5testss_40is_private_or_loopback_ipv4_private_true
FN:146,_RNvNtNtNtCs4kTbYauoumE_12rust_backend3api6routes5testss_40is_private_or_loopback_ipv4_public_false
FN:152,_RNvNtNtNtCs4kTbYauoumE_12rust_backend3api6routes5testss_41is_private_or_loopback_ipv6_loopback_true
FN:158,_RNvNtNtNtCs4kTbYauoumE_12rust_backend3api6routes5testss_45is_private_or_loopback_ipv6_unique_local_true
FN:80,_RNCNCNvNtNtCs4kTbYauoumE_12rust_backend3api6routes5ready00B9_
FN:91,_RNCNCNvNtNtCs4kTbYauoumE_12rust_backend3api6routes7metrics00B9_
FN:108,_RNCNCNvNtNtCs4kTbYauoumE_12rust_backend3api6routes7metrics0s0_0B9_
FN:96,_RNCNCNvNtNtCs4kTbYauoumE_12rust_backend3api6routes7metrics0s_0B9_
FN:75,_RNCNvNtNtCs4kTbYauoumE_12rust_backend3api6routes5ready0B7_
FN:62,_RNCNvNtNtCs4kTbYauoumE_12rust_backend3api6routes6health0B7_
FN:86,_RNCNvNtNtCs4kTbYauoumE_12rust_backend3api6routes7metrics0B7_
FN:129,_RNvNtNtCs4kTbYauoumE_12rust_backend3api6routes10pool_stats
FN:75,_RNvNtNtCs4kTbYauoumE_12rust_backend3api6routes5ready
FN:62,_RNvNtNtCs4kTbYauoumE_12rust_backend3api6routes6health
FN:86,_RNvNtNtCs4kTbYauoumE_12rust_backend3api6routes7metrics
FN:39,_RNvNtNtCs4kTbYauoumE_12rust_backend3api6routes9configure
FNDA:0,_RNCNCNvNtNtCscP9pq2ikS3v_12rust_backend3api6routes5ready00B9_
FNDA:0,_RNCNCNvNtNtCscP9pq2ikS3v_12rust_backend3api6routes7metrics00B9_
FNDA:0,_RNCNCNvNtNtCscP9pq2ikS3v_12rust_backend3api6routes7metrics0s0_0B9_
FNDA:0,_RNCNCNvNtNtCscP9pq2ikS3v_12rust_backend3api6routes7metrics0s_0B9_
FNDA:0,_RNCNvNtNtCscP9pq2ikS3v_12rust_backend3api6routes5ready0B7_
FNDA:0,_RNCNvNtNtCscP9pq2ikS3v_12rust_backend3api6routes6health0B7_
FNDA:0,_RNCNvNtNtCscP9pq2ikS3v_12rust_backend3api6routes7metrics0B7_
FNDA:0,_RNvNtNtCscP9pq2ikS3v_12rust_backend3api6routes10pool_stats
FNDA:0,_RNvNtNtCscP9pq2ikS3v_12rust_backend3api6routes22is_private_or_loopback
FNDA:0,_RNvNtNtCscP9pq2ikS3v_12rust_backend3api6routes5ready
FNDA:0,_RNvNtNtCscP9pq2ikS3v_12rust_backend3api6routes6health
FNDA:0,_RNvNtNtCscP9pq2ikS3v_12rust_backend3api6routes7metrics
FNDA:0,_RNvNtNtCscP9pq2ikS3v_12rust_backend3api6routes9configure
FNDA:4,_RNvNtNtCs4kTbYauoumE_12rust_backend3api6routes22is_private_or_loopback
FNDA:1,_RNvNtNtNtCs4kTbYauoumE_12rust_backend3api6routes5testss_40is_private_or_loopback_ipv4_private_true
FNDA:1,_RNvNtNtNtCs4kTbYauoumE_12rust_backend3api6routes5testss_40is_private_or_loopback_ipv4_public_false
FNDA:1,_RNvNtNtNtCs4kTbYauoumE_12rust_backend3api6routes5testss_41is_private_or_loopback_ipv6_loopback_true
FNDA:1,_RNvNtNtNtCs4kTbYauoumE_12rust_backend3api6routes5testss_45is_private_or_loopback_ipv6_unique_local_true
FNDA:0,_RNCNCNvNtNtCs4kTbYauoumE_12rust_backend3api6routes5ready00B9_
FNDA:0,_RNCNCNvNtNtCs4kTbYauoumE_12rust_backend3api6routes7metrics00B9_
FNDA:0,_RNCNCNvNtNtCs4kTbYauoumE_12rust_backend3api6routes7metrics0s0_0B9_
FNDA:0,_RNCNCNvNtNtCs4kTbYauoumE_12rust_backend3api6routes7metrics0s_0B9_
FNDA:0,_RNCNvNtNtCs4kTbYauoumE_12rust_backend3api6routes5ready0B7_
FNDA:0,_RNCNvNtNtCs4kTbYauoumE_12rust_backend3api6routes6health0B7_
FNDA:0,_RNCNvNtNtCs4kTbYauoumE_12rust_backend3api6routes7metrics0B7_
FNDA:0,_RNvNtNtCs4kTbYauoumE_12rust_backend3api6routes10pool_stats
FNDA:0,_RNvNtNtCs4kTbYauoumE_12rust_backend3api6routes5ready
FNDA:0,_RNvNtNtCs4kTbYauoumE_12rust_backend3api6routes6health
FNDA:0,_RNvNtNtCs4kTbYauoumE_12rust_backend3api6routes7metrics
FNDA:0,_RNvNtNtCs4kTbYauoumE_12rust_backend3api6routes9configure
FNF:17
FNH:5
DA:39,0
DA:40,0
DA:41,0
DA:42,0
DA:43,0
DA:44,0
DA:45,0
DA:46,0
DA:47,0
DA:48,0
DA:49,0
DA:50,0
DA:51,0
DA:52,0
DA:62,0
DA:63,0
DA:64,0
DA:75,0
DA:76,0
DA:77,0
DA:78,0
DA:79,0
DA:80,0
DA:81,0
DA:82,0
DA:83,0
DA:84,0
DA:86,0
DA:87,0
DA:88,0
DA:89,0
DA:90,0
DA:91,0
DA:93,0
DA:94,0
DA:95,0
DA:96,0
DA:97,0
DA:98,0
DA:99,0
DA:100,0
DA:101,0
DA:102,0
DA:103,0
DA:105,0
DA:106,0
DA:107,0
DA:108,0
DA:109,0
DA:111,0
DA:112,0
DA:113,0
DA:114,0
DA:116,0
DA:117,0
DA:118,0
DA:119,0
DA:120,0
DA:122,4
DA:123,4
DA:124,2
DA:125,2
DA:127,4
DA:129,0
DA:130,0
DA:131,0
DA:140,1
DA:141,1
DA:142,1
DA:143,1
DA:146,1
DA:147,1
DA:148,1
DA:149,1
DA:152,1
DA:153,1
DA:154,1
DA:155,1
DA:158,1
DA:159,1
DA:160,1
DA:161,1
BRF:0
BRH:0
LF:89
LH:21
end_of_record
SF:/Users/mykolborghese/rust-backend/src/api/routes/users.rs
FN:50,_RNCNvNtNtNtCscP9pq2ikS3v_12rust_backend3api6routes5users12my_equipment0B9_
FN:22,_RNCNvNtNtNtCscP9pq2ikS3v_12rust_backend3api6routes5users16get_user_profile0B9_
FN:35,_RNCNvNtNtNtCscP9pq2ikS3v_12rust_backend3api6routes5users19update_user_profile0B9_
FN:46,_RNvNtNtNtCscP9pq2ikS3v_12rust_backend3api6routes5users12my_equipment
FN:19,_RNvNtNtNtCscP9pq2ikS3v_12rust_backend3api6routes5users16get_user_profile
FN:30,_RNvNtNtNtCscP9pq2ikS3v_12rust_backend3api6routes5users19update_user_profile
FN:10,_RNvNtNtNtCscP9pq2ikS3v_12rust_backend3api6routes5users9configure
FN:50,_RNCNvNtNtNtCs4kTbYauoumE_12rust_backend3api6routes5users12my_equipment0B9_
FN:22,_RNCNvNtNtNtCs4kTbYauoumE_12rust_backend3api6routes5users16get_user_profile0B9_
FN:35,_RNCNvNtNtNtCs4kTbYauoumE_12rust_backend3api6routes5users19update_user_profile0B9_
FN:46,_RNvNtNtNtCs4kTbYauoumE_12rust_backend3api6routes5users12my_equipment
FN:19,_RNvNtNtNtCs4kTbYauoumE_12rust_backend3api6routes5users16get_user_profile
FN:30,_RNvNtNtNtCs4kTbYauoumE_12rust_backend3api6routes5users19update_user_profile
FN:10,_RNvNtNtNtCs4kTbYauoumE_12rust_backend3api6routes5users9configure
FNDA:0,_RNCNvNtNtNtCscP9pq2ikS3v_12rust_backend3api6routes5users12my_equipment0B9_
FNDA:0,_RNCNvNtNtNtCscP9pq2ikS3v_12rust_backend3api6routes5users16get_user_profile0B9_
FNDA:0,_RNCNvNtNtNtCscP9pq2ikS3v_12rust_backend3api6routes5users19update_user_profile0B9_
FNDA:0,_RNvNtNtNtCscP9pq2ikS3v_12rust_backend3api6routes5users12my_equipment
FNDA:0,_RNvNtNtNtCscP9pq2ikS3v_12rust_backend3api6routes5users16get_user_profile
FNDA:0,_RNvNtNtNtCscP9pq2ikS3v_12rust_backend3api6routes5users19update_user_profile
FNDA:0,_RNvNtNtNtCscP9pq2ikS3v_12rust_backend3api6routes5users9configure
FNDA:0,_RNCNvNtNtNtCs4kTbYauoumE_12rust_backend3api6routes5users12my_equipment0B9_
FNDA:0,_RNCNvNtNtNtCs4kTbYauoumE_12rust_backend3api6routes5users16get_user_profile0B9_
FNDA:0,_RNCNvNtNtNtCs4kTbYauoumE_12rust_backend3api6routes5users19update_user_profile0B9_
FNDA:0,_RNvNtNtNtCs4kTbYauoumE_12rust_backend3api6routes5users12my_equipment
FNDA:0,_RNvNtNtNtCs4kTbYauoumE_12rust_backend3api6routes5users16get_user_profile
FNDA:0,_RNvNtNtNtCs4kTbYauoumE_12rust_backend3api6routes5users19update_user_profile
FNDA:0,_RNvNtNtNtCs4kTbYauoumE_12rust_backend3api6routes5users9configure
FNF:7
FNH:0
DA:10,0
DA:11,0
DA:12,0
DA:13,0
DA:14,0
DA:15,0
DA:17,0
DA:19,0
DA:20,0
DA:21,0
DA:22,0
DA:23,0
DA:24,0
DA:25,0
DA:26,0
DA:27,0
DA:28,0
DA:30,0
DA:31,0
DA:32,0
DA:33,0
DA:34,0
DA:35,0
DA:36,0
DA:37,0
DA:38,0
DA:39,0
DA:40,0
DA:41,0
DA:42,0
DA:43,0
DA:44,0
DA:46,0
DA:47,0
DA:48,0
DA:49,0
DA:50,0
DA:51,0
DA:52,0
DA:53,0
DA:54,0
DA:55,0
DA:56,0
DA:57,0
BRF:0
BRH:0
LF:47
LH:0
end_of_record
SF:/Users/mykolborghese/rust-backend/src/api/routes/ws/handlers.rs
FN:13,_RNvNtNtNtNtCscP9pq2ikS3v_12rust_backend3api6routes2ws8handlers19handle_text_message
FN:28,_RNCNCNvNtNtNtNtCscP9pq2ikS3v_12rust_backend3api6routes2ws8handlers19handle_text_message00Bd_
FN:82,_RNCNCNvNtNtNtNtCscP9pq2ikS3v_12rust_backend3api6routes2ws8handlers19handle_text_message0s_0Bd_
FN:19,_RNCNvNtNtNtNtCscP9pq2ikS3v_12rust_backend3api6routes2ws8handlers19handle_text_message0Bb_
FN:28,_RNCNCNvNtNtNtNtCs4kTbYauoumE_12rust_backend3api6routes2ws8handlers19handle_text_message00Bd_
FN:82,_RNCNCNvNtNtNtNtCs4kTbYauoumE_12rust_backend3api6routes2ws8handlers19handle_text_message0s_0Bd_
FN:19,_RNCNvNtNtNtNtCs4kTbYauoumE_12rust_backend3api6routes2ws8handlers19handle_text_message0Bb_
FN:13,_RNvNtNtNtNtCs4kTbYauoumE_12rust_backend3api6routes2ws8handlers19handle_text_message
FNDA:0,_RNvNtNtNtNtCscP9pq2ikS3v_12rust_backend3api6routes2ws8handlers19handle_text_message
FNDA:0,_RNCNCNvNtNtNtNtCscP9pq2ikS3v_12rust_backend3api6routes2ws8handlers19handle_text_message00Bd_
FNDA:0,_RNCNCNvNtNtNtNtCscP9pq2ikS3v_12rust_backend3api6routes2ws8handlers19handle_text_message0s_0Bd_
FNDA:0,_RNCNvNtNtNtNtCscP9pq2ikS3v_12rust_backend3api6routes2ws8handlers19handle_text_message0Bb_
FNDA:0,_RNCNCNvNtNtNtNtCs4kTbYauoumE_12rust_backend3api6routes2ws8handlers19handle_text_message00Bd_
FNDA:0,_RNCNCNvNtNtNtNtCs4kTbYauoumE_12rust_backend3api6routes2ws8handlers19handle_text_message0s_0Bd_
FNDA:0,_RNCNvNtNtNtNtCs4kTbYauoumE_12rust_backend3api6routes2ws8handlers19handle_text_message0Bb_
FNDA:0,_RNvNtNtNtNtCs4kTbYauoumE_12rust_backend3api6routes2ws8handlers19handle_text_message
FNF:4
FNH:0
DA:13,0
DA:14,0
DA:15,0
DA:16,0
DA:17,0
DA:18,0
DA:19,0
DA:20,0
DA:22,0
DA:23,0
DA:24,0
DA:25,0
DA:26,0
DA:27,0
DA:28,0
DA:30,0
DA:31,0
DA:34,0
DA:35,0
DA:36,0
DA:37,0
DA:38,0
DA:39,0
DA:40,0
DA:41,0
DA:42,0
DA:44,0
DA:45,0
DA:47,0
DA:48,0
DA:49,0
DA:50,0
DA:51,0
DA:52,0
DA:53,0
DA:54,0
DA:55,0
DA:56,0
DA:57,0
DA:60,0
DA:62,0
DA:63,0
DA:64,0
DA:65,0
DA:66,0
DA:67,0
DA:68,0
DA:69,0
DA:70,0
DA:71,0
DA:72,0
DA:73,0
DA:74,0
DA:75,0
DA:78,0
DA:81,0
DA:82,0
DA:83,0
DA:84,0
DA:88,0
DA:89,0
BRF:0
BRH:0
LF:65
LH:0
end_of_record
SF:/Users/mykolborghese/rust-backend/src/api/routes/ws/hub.rs
FN:56,_RNCNCNvMNtNtNtNtCscP9pq2ikS3v_12rust_backend3api6routes2ws3hubNtB6_15WsConnectionHub18broadcast_to_users00Be_
FN:40,_RNCNvMNtNtNtNtCscP9pq2ikS3v_12rust_backend3api6routes2ws3hubNtB4_15WsConnectionHub10prune_user0Bc_
FN:52,_RNCNvMNtNtNtNtCscP9pq2ikS3v_12rust_backend3api6routes2ws3hubNtB4_15WsConnectionHub18broadcast_to_users0Bc_
FN:78,_RNCNvMNtNtNtNtCscP9pq2ikS3v_12rust_backend3api6routes2ws3hubNtB4_15WsConnectionHub18broadcast_to_userss_0Bc_
FN:37,_RNvMNtNtNtNtCscP9pq2ikS3v_12rust_backend3api6routes2ws3hubNtB2_15WsConnectionHub10prune_user
FN:14,_RNvMNtNtNtNtCscP9pq2ikS3v_12rust_backend3api6routes2ws3hubNtB2_15WsConnectionHub13read_sessions
FN:22,_RNvMNtNtNtNtCscP9pq2ikS3v_12rust_backend3api6routes2ws3hubNtB2_15WsConnectionHub14write_sessions
FN:47,_RNvMNtNtNtNtCscP9pq2ikS3v_12rust_backend3api6routes2ws3hubNtB2_15WsConnectionHub18broadcast_to_users
FN:30,_RNvMNtNtNtNtCscP9pq2ikS3v_12rust_backend3api6routes2ws3hubNtB2_15WsConnectionHub8register
FN:37,_RNvMNtNtNtNtCs4kTbYauoumE_12rust_backend3api6routes2ws3hubNtB2_15WsConnectionHub10prune_user
FN:14,_RNvMNtNtNtNtCs4kTbYauoumE_12rust_backend3api6routes2ws3hubNtB2_15WsConnectionHub13read_sessions
FN:22,_RNvMNtNtNtNtCs4kTbYauoumE_12rust_backend3api6routes2ws3hubNtB2_15WsConnectionHub14write_sessions
FN:47,_RNvMNtNtNtNtCs4kTbYauoumE_12rust_backend3api6routes2ws3hubNtB2_15WsConnectionHub18broadcast_to_users
FN:30,_RNvMNtNtNtNtCs4kTbYauoumE_12rust_backend3api6routes2ws3hubNtB2_15WsConnectionHub8register
FN:56,_RNCNCNvMNtNtNtNtCs4kTbYauoumE_12rust_backend3api6routes2ws3hubNtB6_15WsConnectionHub18broadcast_to_users00Be_
FN:40,_RNCNvMNtNtNtNtCs4kTbYauoumE_12rust_backend3api6routes2ws3hubNtB4_15WsConnectionHub10prune_user0Bc_
FN:52,_RNCNvMNtNtNtNtCs4kTbYauoumE_12rust_backend3api6routes2ws3hubNtB4_15WsConnectionHub18broadcast_to_users0Bc_
FN:78,_RNCNvMNtNtNtNtCs4kTbYauoumE_12rust_backend3api6routes2ws3hubNtB4_15WsConnectionHub18broadcast_to_userss_0Bc_
FNDA:0,_RNCNCNvMNtNtNtNtCscP9pq2ikS3v_12rust_backend3api6routes2ws3hubNtB6_15WsConnectionHub18broadcast_to_users00Be_
FNDA:0,_RNCNvMNtNtNtNtCscP9pq2ikS3v_12rust_backend3api6routes2ws3hubNtB4_15WsConnectionHub10prune_user0Bc_
FNDA:0,_RNCNvMNtNtNtNtCscP9pq2ikS3v_12rust_backend3api6routes2ws3hubNtB4_15WsConnectionHub18broadcast_to_users0Bc_
FNDA:0,_RNCNvMNtNtNtNtCscP9pq2ikS3v_12rust_backend3api6routes2ws3hubNtB4_15WsConnectionHub18broadcast_to_userss_0Bc_
FNDA:0,_RNvMNtNtNtNtCscP9pq2ikS3v_12rust_backend3api6routes2ws3hubNtB2_15WsConnectionHub10prune_user
FNDA:0,_RNvMNtNtNtNtCscP9pq2ikS3v_12rust_backend3api6routes2ws3hubNtB2_15WsConnectionHub13read_sessions
FNDA:0,_RNvMNtNtNtNtCscP9pq2ikS3v_12rust_backend3api6routes2ws3hubNtB2_15WsConnectionHub14write_sessions
FNDA:0,_RNvMNtNtNtNtCscP9pq2ikS3v_12rust_backend3api6routes2ws3hubNtB2_15WsConnectionHub18broadcast_to_users
FNDA:0,_RNvMNtNtNtNtCscP9pq2ikS3v_12rust_backend3api6routes2ws3hubNtB2_15WsConnectionHub8register
FNDA:2,_RNvMNtNtNtNtCs4kTbYauoumE_12rust_backend3api6routes2ws3hubNtB2_15WsConnectionHub10prune_user
FNDA:5,_RNvMNtNtNtNtCs4kTbYauoumE_12rust_backend3api6routes2ws3hubNtB2_15WsConnectionHub13read_sessions
FNDA:11,_RNvMNtNtNtNtCs4kTbYauoumE_12rust_backend3api6routes2ws3hubNtB2_15WsConnectionHub14write_sessions
FNDA:5,_RNvMNtNtNtNtCs4kTbYauoumE_12rust_backend3api6routes2ws3hubNtB2_15WsConnectionHub18broadcast_to_users
FNDA:7,_RNvMNtNtNtNtCs4kTbYauoumE_12rust_backend3api6routes2ws3hubNtB2_15WsConnectionHub8register
FNDA:3,_RNCNCNvMNtNtNtNtCs4kTbYauoumE_12rust_backend3api6routes2ws3hubNtB6_15WsConnectionHub18broadcast_to_users00Be_
FNDA:2,_RNCNvMNtNtNtNtCs4kTbYauoumE_12rust_backend3api6routes2ws3hubNtB4_15WsConnectionHub10prune_user0Bc_
FNDA:6,_RNCNvMNtNtNtNtCs4kTbYauoumE_12rust_backend3api6routes2ws3hubNtB4_15WsConnectionHub18broadcast_to_users0Bc_
FNDA:4,_RNCNvMNtNtNtNtCs4kTbYauoumE_12rust_backend3api6routes2ws3hubNtB4_15WsConnectionHub18broadcast_to_userss_0Bc_
FNF:9
FNH:9
DA:14,5
DA:15,5
DA:16,5
DA:17,5
DA:18,5
DA:19,5
DA:20,5
DA:22,11
DA:23,11
DA:24,11
DA:25,11
DA:26,11
DA:27,11
DA:28,11
DA:30,7
DA:31,7
DA:32,7
DA:33,7
DA:34,7
DA:35,7
DA:37,2
DA:38,2
DA:39,2
DA:40,2
DA:41,2
DA:42,2
DA:43,2
DA:44,0
DA:45,2
DA:47,5
DA:48,5
DA:49,5
DA:50,5
DA:51,5
DA:52,6
DA:53,6
DA:54,6
DA:55,6
DA:56,6
DA:57,6
DA:58,5
DA:61,5
DA:62,5
DA:63,3
DA:64,5
DA:65,5
DA:66,2
DA:67,3
DA:69,3
DA:70,2
DA:71,2
DA:74,5
DA:75,2
DA:76,2
DA:77,2
DA:78,4
DA:79,2
DA:80,0
DA:81,2
DA:82,0
DA:84,3
DA:85,5
BRF:0
BRH:0
LF:66
LH:63
end_of_record
SF:/Users/mykolborghese/rust-backend/src/api/routes/ws/messages.rs
FN:33,_RNCNvNtNtNtNtCscP9pq2ikS3v_12rust_backend3api6routes2ws8messages17parse_ws_envelope0Bb_
FN:54,_RNCNvNtNtNtNtCscP9pq2ikS3v_12rust_backend3api6routes2ws8messages18parse_read_payload0Bb_
FN:56,_RNCNvNtNtNtNtCscP9pq2ikS3v_12rust_backend3api6routes2ws8messages18parse_read_payloads_0Bb_
FN:47,_RNCNvNtNtNtNtCscP9pq2ikS3v_12rust_backend3api6routes2ws8messages20parse_typing_payload0Bb_
FN:49,_RNCNvNtNtNtNtCscP9pq2ikS3v_12rust_backend3api6routes2ws8messages20parse_typing_payloads_0Bb_
FN:40,_RNCNvNtNtNtNtCscP9pq2ikS3v_12rust_backend3api6routes2ws8messages26parse_send_message_payload0Bb_
FN:42,_RNCNvNtNtNtNtCscP9pq2ikS3v_12rust_backend3api6routes2ws8messages26parse_send_message_payloads_0Bb_
FN:31,_RNvNtNtNtNtCscP9pq2ikS3v_12rust_backend3api6routes2ws8messages17parse_ws_envelope
FN:52,_RNvNtNtNtNtCscP9pq2ikS3v_12rust_backend3api6routes2ws8messages18parse_read_payload
FN:45,_RNvNtNtNtNtCscP9pq2ikS3v_12rust_backend3api6routes2ws8messages20parse_typing_payload
FN:36,_RNvNtNtNtNtCscP9pq2ikS3v_12rust_backend3api6routes2ws8messages26parse_send_message_payload
FN:33,_RNCNvNtNtNtNtCs4kTbYauoumE_12rust_backend3api6routes2ws8messages17parse_ws_envelope0Bb_
FN:54,_RNCNvNtNtNtNtCs4kTbYauoumE_12rust_backend3api6routes2ws8messages18parse_read_payload0Bb_
FN:56,_RNCNvNtNtNtNtCs4kTbYauoumE_12rust_backend3api6routes2ws8messages18parse_read_payloads_0Bb_
FN:47,_RNCNvNtNtNtNtCs4kTbYauoumE_12rust_backend3api6routes2ws8messages20parse_typing_payload0Bb_
FN:49,_RNCNvNtNtNtNtCs4kTbYauoumE_12rust_backend3api6routes2ws8messages20parse_typing_payloads_0Bb_
FN:40,_RNCNvNtNtNtNtCs4kTbYauoumE_12rust_backend3api6routes2ws8messages26parse_send_message_payload0Bb_
FN:42,_RNCNvNtNtNtNtCs4kTbYauoumE_12rust_backend3api6routes2ws8messages26parse_send_message_payloads_0Bb_
FN:31,_RNvNtNtNtNtCs4kTbYauoumE_12rust_backend3api6routes2ws8messages17parse_ws_envelope
FN:52,_RNvNtNtNtNtCs4kTbYauoumE_12rust_backend3api6routes2ws8messages18parse_read_payload
FN:45,_RNvNtNtNtNtCs4kTbYauoumE_12rust_backend3api6routes2ws8messages20parse_typing_payload
FN:36,_RNvNtNtNtNtCs4kTbYauoumE_12rust_backend3api6routes2ws8messages26parse_send_message_payload
FNDA:0,_RNCNvNtNtNtNtCscP9pq2ikS3v_12rust_backend3api6routes2ws8messages17parse_ws_envelope0Bb_
FNDA:0,_RNCNvNtNtNtNtCscP9pq2ikS3v_12rust_backend3api6routes2ws8messages18parse_read_payload0Bb_
FNDA:0,_RNCNvNtNtNtNtCscP9pq2ikS3v_12rust_backend3api6routes2ws8messages18parse_read_payloads_0Bb_
FNDA:0,_RNCNvNtNtNtNtCscP9pq2ikS3v_12rust_backend3api6routes2ws8messages20parse_typing_payload0Bb_
FNDA:0,_RNCNvNtNtNtNtCscP9pq2ikS3v_12rust_backend3api6routes2ws8messages20parse_typing_payloads_0Bb_
FNDA:0,_RNCNvNtNtNtNtCscP9pq2ikS3v_12rust_backend3api6routes2ws8messages26parse_send_message_payload0Bb_
FNDA:0,_RNCNvNtNtNtNtCscP9pq2ikS3v_12rust_backend3api6routes2ws8messages26parse_send_message_payloads_0Bb_
FNDA:0,_RNvNtNtNtNtCscP9pq2ikS3v_12rust_backend3api6routes2ws8messages17parse_ws_envelope
FNDA:0,_RNvNtNtNtNtCscP9pq2ikS3v_12rust_backend3api6routes2ws8messages18parse_read_payload
FNDA:0,_RNvNtNtNtNtCscP9pq2ikS3v_12rust_backend3api6routes2ws8messages20parse_typing_payload
FNDA:0,_RNvNtNtNtNtCscP9pq2ikS3v_12rust_backend3api6routes2ws8messages26parse_send_message_payload
FNDA:2,_RNCNvNtNtNtNtCs4kTbYauoumE_12rust_backend3api6routes2ws8messages17parse_ws_envelope0Bb_
FNDA:1,_RNCNvNtNtNtNtCs4kTbYauoumE_12rust_backend3api6routes2ws8messages18parse_read_payload0Bb_
FNDA:1,_RNCNvNtNtNtNtCs4kTbYauoumE_12rust_backend3api6routes2ws8messages18parse_read_payloads_0Bb_
FNDA:1,_RNCNvNtNtNtNtCs4kTbYauoumE_12rust_backend3api6routes2ws8messages20parse_typing_payload0Bb_
FNDA:1,_RNCNvNtNtNtNtCs4kTbYauoumE_12rust_backend3api6routes2ws8messages20parse_typing_payloads_0Bb_
FNDA:1,_RNCNvNtNtNtNtCs4kTbYauoumE_12rust_backend3api6routes2ws8messages26parse_send_message_payload0Bb_
FNDA:2,_RNCNvNtNtNtNtCs4kTbYauoumE_12rust_backend3api6routes2ws8messages26parse_send_message_payloads_0Bb_
FNDA:3,_RNvNtNtNtNtCs4kTbYauoumE_12rust_backend3api6routes2ws8messages17parse_ws_envelope
FNDA:3,_RNvNtNtNtNtCs4kTbYauoumE_12rust_backend3api6routes2ws8messages18parse_read_payload
FNDA:3,_RNvNtNtNtNtCs4kTbYauoumE_12rust_backend3api6routes2ws8messages20parse_typing_payload
FNDA:3,_RNvNtNtNtNtCs4kTbYauoumE_12rust_backend3api6routes2ws8messages26parse_send_message_payload
FNF:11
FNH:11
DA:31,3
DA:32,3
DA:33,3
DA:34,3
DA:36,3
DA:37,3
DA:38,3
DA:39,2
DA:40,3
DA:41,2
DA:42,2
DA:43,3
DA:45,3
DA:46,2
DA:47,3
DA:48,2
DA:49,2
DA:50,3
DA:52,3
DA:53,2
DA:54,3
DA:55,2
DA:56,2
DA:57,3
BRF:0
BRH:0
LF:31
LH:31
end_of_record
SF:/Users/mykolborghese/rust-backend/src/api/routes/ws/mod.rs
FN:58,_RNCNCNvNtNtNtCscP9pq2ikS3v_12rust_backend3api6routes2ws10ws_upgrade00Bb_
FN:65,_RNCNCNvNtNtNtCscP9pq2ikS3v_12rust_backend3api6routes2ws10ws_upgrade0s_0Bb_
FN:90,_RNCNCNvNtNtNtCscP9pq2ikS3v_12rust_backend3api6routes2ws20authenticate_ws_user00Bb_
FN:96,_RNCNCNvNtNtNtCscP9pq2ikS3v_12rust_backend3api6routes2ws20authenticate_ws_user0s0_0Bb_
FN:93,_RNCNCNvNtNtNtCscP9pq2ikS3v_12rust_backend3api6routes2ws20authenticate_ws_user0s_0Bb_
FN:44,_RNCNvNtNtNtCscP9pq2ikS3v_12rust_backend3api6routes2ws10ws_upgrade0B9_
FN:120,_RNCNvNtNtNtCscP9pq2ikS3v_12rust_backend3api6routes2ws16extract_ws_token0B9_
FN:136,_RNCNvNtNtNtCscP9pq2ikS3v_12rust_backend3api6routes2ws16extract_ws_tokens0_0B9_
FN:127,_RNCNvNtNtNtCscP9pq2ikS3v_12rust_backend3api6routes2ws16extract_ws_tokens_0B9_
FN:85,_RNCNvNtNtNtCscP9pq2ikS3v_12rust_backend3api6routes2ws20authenticate_ws_user0B9_
FN:154,_RNCNvNtNtNtCscP9pq2ikS3v_12rust_backend3api6routes2ws20is_secure_ws_request0B9_
FN:155,_RNCNvNtNtNtCscP9pq2ikS3v_12rust_backend3api6routes2ws20is_secure_ws_requests_0B9_
FN:165,_RNCNvNtNtNtCscP9pq2ikS3v_12rust_backend3api6routes2ws7ws_loop0B9_
FN:40,_RNvNtNtNtCscP9pq2ikS3v_12rust_backend3api6routes2ws10ws_upgrade
FN:110,_RNvNtNtNtCscP9pq2ikS3v_12rust_backend3api6routes2ws16extract_ws_token
FN:82,_RNvNtNtNtCscP9pq2ikS3v_12rust_backend3api6routes2ws20authenticate_ws_user
FN:146,_RNvNtNtNtCscP9pq2ikS3v_12rust_backend3api6routes2ws20is_secure_ws_request
FN:158,_RNvNtNtNtCscP9pq2ikS3v_12rust_backend3api6routes2ws7ws_loop
FN:36,_RNvNtNtNtCscP9pq2ikS3v_12rust_backend3api6routes2ws9configure
FN:58,_RNCNCNvNtNtNtCs4kTbYauoumE_12rust_backend3api6routes2ws10ws_upgrade00Bb_
FN:65,_RNCNCNvNtNtNtCs4kTbYauoumE_12rust_backend3api6routes2ws10ws_upgrade0s_0Bb_
FN:90,_RNCNCNvNtNtNtCs4kTbYauoumE_12rust_backend3api6routes2ws20authenticate_ws_user00Bb_
FN:96,_RNCNCNvNtNtNtCs4kTbYauoumE_12rust_backend3api6routes2ws20authenticate_ws_user0s0_0Bb_
FN:93,_RNCNCNvNtNtNtCs4kTbYauoumE_12rust_backend3api6routes2ws20authenticate_ws_user0s_0Bb_
FN:44,_RNCNvNtNtNtCs4kTbYauoumE_12rust_backend3api6routes2ws10ws_upgrade0B9_
FN:120,_RNCNvNtNtNtCs4kTbYauoumE_12rust_backend3api6routes2ws16extract_ws_token0B9_
FN:136,_RNCNvNtNtNtCs4kTbYauoumE_12rust_backend3api6routes2ws16extract_ws_tokens0_0B9_
FN:127,_RNCNvNtNtNtCs4kTbYauoumE_12rust_backend3api6routes2ws16extract_ws_tokens_0B9_
FN:85,_RNCNvNtNtNtCs4kTbYauoumE_12rust_backend3api6routes2ws20authenticate_ws_user0B9_
FN:154,_RNCNvNtNtNtCs4kTbYauoumE_12rust_backend3api6routes2ws20is_secure_ws_request0B9_
FN:155,_RNCNvNtNtNtCs4kTbYauoumE_12rust_backend3api6routes2ws20is_secure_ws_requests_0B9_
FN:165,_RNCNvNtNtNtCs4kTbYauoumE_12rust_backend3api6routes2ws7ws_loop0B9_
FN:40,_RNvNtNtNtCs4kTbYauoumE_12rust_backend3api6routes2ws10ws_upgrade
FN:110,_RNvNtNtNtCs4kTbYauoumE_12rust_backend3api6routes2ws16extract_ws_token
FN:82,_RNvNtNtNtCs4kTbYauoumE_12rust_backend3api6routes2ws20authenticate_ws_user
FN:146,_RNvNtNtNtCs4kTbYauoumE_12rust_backend3api6routes2ws20is_secure_ws_request
FN:158,_RNvNtNtNtCs4kTbYauoumE_12rust_backend3api6routes2ws7ws_loop
FN:36,_RNvNtNtNtCs4kTbYauoumE_12rust_backend3api6routes2ws9configure
FNDA:0,_RNCNCNvNtNtNtCscP9pq2ikS3v_12rust_backend3api6routes2ws10ws_upgrade00Bb_
FNDA:0,_RNCNCNvNtNtNtCscP9pq2ikS3v_12rust_backend3api6routes2ws10ws_upgrade0s_0Bb_
FNDA:0,_RNCNCNvNtNtNtCscP9pq2ikS3v_12rust_backend3api6routes2ws20authenticate_ws_user00Bb_
FNDA:0,_RNCNCNvNtNtNtCscP9pq2ikS3v_12rust_backend3api6routes2ws20authenticate_ws_user0s0_0Bb_
FNDA:0,_RNCNCNvNtNtNtCscP9pq2ikS3v_12rust_backend3api6routes2ws20authenticate_ws_user0s_0Bb_
FNDA:0,_RNCNvNtNtNtCscP9pq2ikS3v_12rust_backend3api6routes2ws10ws_upgrade0B9_
FNDA:0,_RNCNvNtNtNtCscP9pq2ikS3v_12rust_backend3api6routes2ws16extract_ws_token0B9_
FNDA:0,_RNCNvNtNtNtCscP9pq2ikS3v_12rust_backend3api6routes2ws16extract_ws_tokens0_0B9_
FNDA:0,_RNCNvNtNtNtCscP9pq2ikS3v_12rust_backend3api6routes2ws16extract_ws_tokens_0B9_
FNDA:0,_RNCNvNtNtNtCscP9pq2ikS3v_12rust_backend3api6routes2ws20authenticate_ws_user0B9_
FNDA:0,_RNCNvNtNtNtCscP9pq2ikS3v_12rust_backend3api6routes2ws20is_secure_ws_request0B9_
FNDA:0,_RNCNvNtNtNtCscP9pq2ikS3v_12rust_backend3api6routes2ws20is_secure_ws_requests_0B9_
FNDA:0,_RNCNvNtNtNtCscP9pq2ikS3v_12rust_backend3api6routes2ws7ws_loop0B9_
FNDA:0,_RNvNtNtNtCscP9pq2ikS3v_12rust_backend3api6routes2ws10ws_upgrade
FNDA:0,_RNvNtNtNtCscP9pq2ikS3v_12rust_backend3api6routes2ws16extract_ws_token
FNDA:0,_RNvNtNtNtCscP9pq2ikS3v_12rust_backend3api6routes2ws20authenticate_ws_user
FNDA:0,_RNvNtNtNtCscP9pq2ikS3v_12rust_backend3api6routes2ws20is_secure_ws_request
FNDA:0,_RNvNtNtNtCscP9pq2ikS3v_12rust_backend3api6routes2ws7ws_loop
FNDA:0,_RNvNtNtNtCscP9pq2ikS3v_12rust_backend3api6routes2ws9configure
FNDA:0,_RNCNCNvNtNtNtCs4kTbYauoumE_12rust_backend3api6routes2ws10ws_upgrade00Bb_
FNDA:0,_RNCNCNvNtNtNtCs4kTbYauoumE_12rust_backend3api6routes2ws10ws_upgrade0s_0Bb_
FNDA:0,_RNCNCNvNtNtNtCs4kTbYauoumE_12rust_backend3api6routes2ws20authenticate_ws_user00Bb_
FNDA:0,_RNCNCNvNtNtNtCs4kTbYauoumE_12rust_backend3api6routes2ws20authenticate_ws_user0s0_0Bb_
FNDA:0,_RNCNCNvNtNtNtCs4kTbYauoumE_12rust_backend3api6routes2ws20authenticate_ws_user0s_0Bb_
FNDA:3,_RNCNvNtNtNtCs4kTbYauoumE_12rust_backend3api6routes2ws10ws_upgrade0B9_
FNDA:4,_RNCNvNtNtNtCs4kTbYauoumE_12rust_backend3api6routes2ws16extract_ws_token0B9_
FNDA:4,_RNCNvNtNtNtCs4kTbYauoumE_12rust_backend3api6routes2ws16extract_ws_tokens0_0B9_
FNDA:4,_RNCNvNtNtNtCs4kTbYauoumE_12rust_backend3api6routes2ws16extract_ws_tokens_0B9_
FNDA:2,_RNCNvNtNtNtCs4kTbYauoumE_12rust_backend3api6routes2ws20authenticate_ws_user0B9_
FNDA:3,_RNCNvNtNtNtCs4kTbYauoumE_12rust_backend3api6routes2ws20is_secure_ws_request0B9_
FNDA:3,_RNCNvNtNtNtCs4kTbYauoumE_12rust_backend3api6routes2ws20is_secure_ws_requests_0B9_
FNDA:0,_RNCNvNtNtNtCs4kTbYauoumE_12rust_backend3api6routes2ws7ws_loop0B9_
FNDA:3,_RNvNtNtNtCs4kTbYauoumE_12rust_backend3api6routes2ws10ws_upgrade
FNDA:9,_RNvNtNtNtCs4kTbYauoumE_12rust_backend3api6routes2ws16extract_ws_token
FNDA:2,_RNvNtNtNtCs4kTbYauoumE_12rust_backend3api6routes2ws20authenticate_ws_user
FNDA:6,_RNvNtNtNtCs4kTbYauoumE_12rust_backend3api6routes2ws20is_secure_ws_request
FNDA:0,_RNvNtNtNtCs4kTbYauoumE_12rust_backend3api6routes2ws7ws_loop
FNDA:3,_RNvNtNtNtCs4kTbYauoumE_12rust_backend3api6routes2ws9configure
FNF:19
FNH:12
DA:36,3
DA:37,3
DA:38,3
DA:40,3
DA:41,3
DA:42,3
DA:43,3
DA:44,3
DA:45,3
DA:46,1
DA:47,1
DA:48,1
DA:49,2
DA:51,2
DA:52,1
DA:53,1
DA:54,1
DA:55,1
DA:57,1
DA:58,1
DA:60,1
DA:61,1
DA:62,1
DA:63,1
DA:64,1
DA:65,1
DA:66,0
DA:67,0
DA:68,0
DA:69,0
DA:70,0
DA:71,0
DA:72,0
DA:74,0
DA:75,0
DA:76,0
DA:77,0
DA:79,1
DA:80,3
DA:82,2
DA:83,2
DA:84,2
DA:85,2
DA:86,2
DA:88,1
DA:89,1
DA:90,1
DA:91,1
DA:92,1
DA:93,1
DA:94,1
DA:95,1
DA:96,1
DA:97,0
DA:98,0
DA:100,1
DA:101,1
DA:102,1
DA:103,1
DA:104,1
DA:105,1
DA:106,1
DA:107,1
DA:108,2
DA:110,9
DA:111,9
DA:112,9
DA:113,0
DA:114,9
DA:115,0
DA:117,9
DA:118,9
DA:119,9
DA:120,9
DA:123,4
DA:124,4
DA:125,4
DA:126,4
DA:127,4
DA:129,4
DA:130,0
DA:131,5
DA:133,5
DA:134,5
DA:135,5
DA:136,5
DA:137,4
DA:138,4
DA:139,4
DA:140,4
DA:141,2
DA:142,2
DA:143,2
DA:144,9
DA:146,6
DA:147,6
DA:148,1
DA:149,5
DA:151,5
DA:152,5
DA:153,5
DA:154,5
DA:155,5
DA:156,6
DA:158,0
DA:159,0
DA:160,0
DA:161,0
DA:162,0
DA:163,0
DA:164,0
DA:165,0
DA:166,0
DA:167,0
DA:168,0
DA:169,0
DA:172,0
DA:173,0
DA:174,0
DA:175,0
DA:176,0
DA:177,0
DA:178,0
DA:179,0
DA:180,0
DA:182,0
DA:183,0
DA:184,0
DA:187,0
DA:188,0
DA:189,0
DA:190,0
DA:191,0
DA:192,0
DA:194,0
DA:195,0
DA:196,0
DA:197,0
DA:198,0
DA:199,0
DA:200,0
DA:201,0
DA:202,0
DA:203,0
DA:204,0
DA:205,0
DA:207,0
DA:209,0
DA:211,0
DA:212,0
DA:213,0
DA:214,0
DA:215,0
DA:217,0
DA:219,0
DA:221,0
DA:222,0
DA:223,0
DA:226,0
DA:227,0
DA:228,0
DA:229,0
DA:231,0
DA:234,0
DA:235,0
DA:236,0
DA:238,0
DA:239,0
DA:240,0
DA:245,0
DA:246,0
BRF:0
BRH:0
LF:185
LH:95
end_of_record
SF:/Users/mykolborghese/rust-backend/src/application/admin/category.rs
FN:32,_RNCNCNvNtNtNtCscP9pq2ikS3v_12rust_backend11application5admin8category24validate_category_parent00Bb_
FN:9,_RNCNvNtNtNtCscP9pq2ikS3v_12rust_backend11application5admin8category24validate_category_parent0B9_
FN:5,_RNvNtNtNtCscP9pq2ikS3v_12rust_backend11application5admin8category24validate_category_parent
FN:32,_RNCNCNvNtNtNtCs4kTbYauoumE_12rust_backend11application5admin8category24validate_category_parent00Bb_
FN:9,_RNCNvNtNtNtCs4kTbYauoumE_12rust_backend11application5admin8category24validate_category_parent0B9_
FN:5,_RNvNtNtNtCs4kTbYauoumE_12rust_backend11application5admin8category24validate_category_parent
FNDA:0,_RNCNCNvNtNtNtCscP9pq2ikS3v_12rust_backend11application5admin8category24validate_category_parent00Bb_
FNDA:0,_RNCNvNtNtNtCscP9pq2ikS3v_12rust_backend11application5admin8category24validate_category_parent0B9_
FNDA:0,_RNvNtNtNtCscP9pq2ikS3v_12rust_backend11application5admin8category24validate_category_parent
FNDA:0,_RNCNCNvNtNtNtCs4kTbYauoumE_12rust_backend11application5admin8category24validate_category_parent00Bb_
FNDA:0,_RNCNvNtNtNtCs4kTbYauoumE_12rust_backend11application5admin8category24validate_category_parent0B9_
FNDA:0,_RNvNtNtNtCs4kTbYauoumE_12rust_backend11application5admin8category24validate_category_parent
FNF:3
FNH:0
DA:5,0
DA:6,0
DA:7,0
DA:8,0
DA:9,0
DA:10,0
DA:11,0
DA:14,0
DA:15,0
DA:16,0
DA:17,0
DA:18,0
DA:20,0
DA:23,0
DA:24,0
DA:25,0
DA:26,0
DA:27,0
DA:29,0
DA:30,0
DA:31,0
DA:32,0
DA:34,0
DA:35,0
DA:36,0
DA:37,0
DA:38,0
DA:40,0
DA:41,0
DA:44,0
DA:46,0
BRF:0
BRH:0
LF:33
LH:0
end_of_record
SF:/Users/mykolborghese/rust-backend/src/application/admin/mapper.rs
FN:12,_RNvNtNtNtCscP9pq2ikS3v_12rust_backend11application5admin6mapper10parse_role
FN:27,_RNvNtNtNtCscP9pq2ikS3v_12rust_backend11application5admin6mapper12map_category
FN:36,_RNvNtNtNtCscP9pq2ikS3v_12rust_backend11application5admin6mapper15map_user_detail
FN:23,_RNvNtNtNtCscP9pq2ikS3v_12rust_backend11application5admin6mapper19parse_optional_role
FN:5,_RNvNtNtNtCscP9pq2ikS3v_12rust_backend11application5admin6mapper20normalize_pagination
FN:12,_RNvNtNtNtCs4kTbYauoumE_12rust_backend11application5admin6mapper10parse_role
FN:27,_RNvNtNtNtCs4kTbYauoumE_12rust_backend11application5admin6mapper12map_category
FN:36,_RNvNtNtNtCs4kTbYauoumE_12rust_backend11application5admin6mapper15map_user_detail
FN:23,_RNvNtNtNtCs4kTbYauoumE_12rust_backend11application5admin6mapper19parse_optional_role
FN:5,_RNvNtNtNtCs4kTbYauoumE_12rust_backend11application5admin6mapper20normalize_pagination
FNDA:0,_RNvNtNtNtCscP9pq2ikS3v_12rust_backend11application5admin6mapper10parse_role
FNDA:0,_RNvNtNtNtCscP9pq2ikS3v_12rust_backend11application5admin6mapper12map_category
FNDA:0,_RNvNtNtNtCscP9pq2ikS3v_12rust_backend11application5admin6mapper15map_user_detail
FNDA:0,_RNvNtNtNtCscP9pq2ikS3v_12rust_backend11application5admin6mapper19parse_optional_role
FNDA:0,_RNvNtNtNtCscP9pq2ikS3v_12rust_backend11application5admin6mapper20normalize_pagination
FNDA:0,_RNvNtNtNtCs4kTbYauoumE_12rust_backend11application5admin6mapper10parse_role
FNDA:0,_RNvNtNtNtCs4kTbYauoumE_12rust_backend11application5admin6mapper12map_category
FNDA:0,_RNvNtNtNtCs4kTbYauoumE_12rust_backend11application5admin6mapper15map_user_detail
FNDA:0,_RNvNtNtNtCs4kTbYauoumE_12rust_backend11application5admin6mapper19parse_optional_role
FNDA:0,_RNvNtNtNtCs4kTbYauoumE_12rust_backend11application5admin6mapper20normalize_pagination
FNF:5
FNH:0
DA:5,0
DA:6,0
DA:7,0
DA:8,0
DA:9,0
DA:10,0
DA:12,0
DA:13,0
DA:14,0
DA:15,0
DA:16,0
DA:17,0
DA:18,0
DA:19,0
DA:21,0
DA:23,0
DA:24,0
DA:25,0
DA:27,0
DA:28,0
DA:29,0
DA:30,0
DA:31,0
DA:32,0
DA:33,0
DA:34,0
DA:36,0
DA:37,0
DA:38,0
DA:39,0
DA:40,0
DA:41,0
DA:42,0
DA:43,0
DA:44,0
DA:45,0
DA:46,0
DA:47,0
DA:48,0
BRF:0
BRH:0
LF:39
LH:0
end_of_record
SF:/Users/mykolborghese/rust-backend/src/application/admin/mod.rs
FN:172,_RNCNCNvMNtNtCscP9pq2ikS3v_12rust_backend11application5adminNtB6_12AdminService14list_equipment00Ba_
FN:106,_RNCNCNvMNtNtCscP9pq2ikS3v_12rust_backend11application5adminNtB6_12AdminService15get_user_detail00Ba_
FN:267,_RNCNCNvMNtNtCscP9pq2ikS3v_12rust_backend11application5adminNtB6_12AdminService15update_category00Ba_
FN:68,_RNCNvMNtNtCscP9pq2ikS3v_12rust_backend11application5adminNtB4_12AdminService10list_users0B8_
FN:139,_RNCNvMNtNtCscP9pq2ikS3v_12rust_backend11application5adminNtB4_12AdminService11delete_user0B8_
FN:215,_RNCNvMNtNtCscP9pq2ikS3v_12rust_backend11application5adminNtB4_12AdminService13require_admin0B8_
FN:160,_RNCNvMNtNtCscP9pq2ikS3v_12rust_backend11application5adminNtB4_12AdminService14list_equipment0B8_
FN:236,_RNCNvMNtNtCscP9pq2ikS3v_12rust_backend11application5adminNtB4_12AdminService15create_category0B8_
FN:291,_RNCNvMNtNtCscP9pq2ikS3v_12rust_backend11application5adminNtB4_12AdminService15delete_category0B8_
FN:101,_RNCNvMNtNtCscP9pq2ikS3v_12rust_backend11application5adminNtB4_12AdminService15get_user_detail0B8_
FN:227,_RNCNvMNtNtCscP9pq2ikS3v_12rust_backend11application5adminNtB4_12AdminService15list_categories0B8_
FN:260,_RNCNvMNtNtCscP9pq2ikS3v_12rust_backend11application5adminNtB4_12AdminService15update_category0B8_
FN:117,_RNCNvMNtNtCscP9pq2ikS3v_12rust_backend11application5adminNtB4_12AdminService16update_user_role0B8_
FN:187,_RNCNvMNtNtCscP9pq2ikS3v_12rust_backend11application5adminNtB4_12AdminService22force_delete_equipment0B8_
FN:202,_RNCNvMNtNtCscP9pq2ikS3v_12rust_backend11application5adminNtB4_12AdminService29toggle_equipment_availability0B8_
FN:42,_RNCNvMNtNtCscP9pq2ikS3v_12rust_backend11application5adminNtB4_12AdminService9get_stats0B8_
FN:62,_RNvMNtNtCscP9pq2ikS3v_12rust_backend11application5adminNtB2_12AdminService10list_users
FN:139,_RNvMNtNtCscP9pq2ikS3v_12rust_backend11application5adminNtB2_12AdminService11delete_user
FN:215,_RNvMNtNtCscP9pq2ikS3v_12rust_backend11application5adminNtB2_12AdminService13require_admin
FN:155,_RNvMNtNtCscP9pq2ikS3v_12rust_backend11application5adminNtB2_12AdminService14list_equipment
FN:232,_RNvMNtNtCscP9pq2ikS3v_12rust_backend11application5adminNtB2_12AdminService15create_category
FN:291,_RNvMNtNtCscP9pq2ikS3v_12rust_backend11application5adminNtB2_12AdminService15delete_category
FN:101,_RNvMNtNtCscP9pq2ikS3v_12rust_backend11application5adminNtB2_12AdminService15get_user_detail
FN:227,_RNvMNtNtCscP9pq2ikS3v_12rust_backend11application5adminNtB2_12AdminService15list_categories
FN:255,_RNvMNtNtCscP9pq2ikS3v_12rust_backend11application5adminNtB2_12AdminService15update_category
FN:112,_RNvMNtNtCscP9pq2ikS3v_12rust_backend11application5adminNtB2_12AdminService16update_user_role
FN:187,_RNvMNtNtCscP9pq2ikS3v_12rust_backend11application5adminNtB2_12AdminService22force_delete_equipment
FN:197,_RNvMNtNtCscP9pq2ikS3v_12rust_backend11application5adminNtB2_12AdminService29toggle_equipment_availability
FN:30,_RNvMNtNtCscP9pq2ikS3v_12rust_backend11application5adminNtB2_12AdminService3new
FN:42,_RNvMNtNtCscP9pq2ikS3v_12rust_backend11application5adminNtB2_12AdminService9get_stats
FN:30,_RNvMNtNtCs4kTbYauoumE_12rust_backend11application5adminNtB2_12AdminService3new
FN:172,_RNCNCNvMNtNtCs4kTbYauoumE_12rust_backend11application5adminNtB6_12AdminService14list_equipment00Ba_
FN:106,_RNCNCNvMNtNtCs4kTbYauoumE_12rust_backend11application5adminNtB6_12AdminService15get_user_detail00Ba_
FN:267,_RNCNCNvMNtNtCs4kTbYauoumE_12rust_backend11application5adminNtB6_12AdminService15update_category00Ba_
FN:68,_RNCNvMNtNtCs4kTbYauoumE_12rust_backend11application5adminNtB4_12AdminService10list_users0B8_
FN:139,_RNCNvMNtNtCs4kTbYauoumE_12rust_backend11application5adminNtB4_12AdminService11delete_user0B8_
FN:215,_RNCNvMNtNtCs4kTbYauoumE_12rust_backend11application5adminNtB4_12AdminService13require_admin0B8_
FN:160,_RNCNvMNtNtCs4kTbYauoumE_12rust_backend11application5adminNtB4_12AdminService14list_equipment0B8_
FN:236,_RNCNvMNtNtCs4kTbYauoumE_12rust_backend11application5adminNtB4_12AdminService15create_category0B8_
FN:291,_RNCNvMNtNtCs4kTbYauoumE_12rust_backend11application5adminNtB4_12AdminService15delete_category0B8_
FN:101,_RNCNvMNtNtCs4kTbYauoumE_12rust_backend11application5adminNtB4_12AdminService15get_user_detail0B8_
FN:227,_RNCNvMNtNtCs4kTbYauoumE_12rust_backend11application5adminNtB4_12AdminService15list_categories0B8_
FN:260,_RNCNvMNtNtCs4kTbYauoumE_12rust_backend11application5adminNtB4_12AdminService15update_category0B8_
FN:117,_RNCNvMNtNtCs4kTbYauoumE_12rust_backend11application5adminNtB4_12AdminService16update_user_role0B8_
FN:187,_RNCNvMNtNtCs4kTbYauoumE_12rust_backend11application5adminNtB4_12AdminService22force_delete_equipment0B8_
FN:202,_RNCNvMNtNtCs4kTbYauoumE_12rust_backend11application5adminNtB4_12AdminService29toggle_equipment_availability0B8_
FN:42,_RNCNvMNtNtCs4kTbYauoumE_12rust_backend11application5adminNtB4_12AdminService9get_stats0B8_
FN:62,_RNvMNtNtCs4kTbYauoumE_12rust_backend11application5adminNtB2_12AdminService10list_users
FN:139,_RNvMNtNtCs4kTbYauoumE_12rust_backend11application5adminNtB2_12AdminService11delete_user
FN:215,_RNvMNtNtCs4kTbYauoumE_12rust_backend11application5adminNtB2_12AdminService13require_admin
FN:155,_RNvMNtNtCs4kTbYauoumE_12rust_backend11application5adminNtB2_12AdminService14list_equipment
FN:232,_RNvMNtNtCs4kTbYauoumE_12rust_backend11application5adminNtB2_12AdminService15create_category
FN:291,_RNvMNtNtCs4kTbYauoumE_12rust_backend11application5adminNtB2_12AdminService15delete_category
FN:101,_RNvMNtNtCs4kTbYauoumE_12rust_backend11application5adminNtB2_12AdminService15get_user_detail
FN:227,_RNvMNtNtCs4kTbYauoumE_12rust_backend11application5adminNtB2_12AdminService15list_categories
FN:255,_RNvMNtNtCs4kTbYauoumE_12rust_backend11application5adminNtB2_12AdminService15update_category
FN:112,_RNvMNtNtCs4kTbYauoumE_12rust_backend11application5adminNtB2_12AdminService16update_user_role
FN:187,_RNvMNtNtCs4kTbYauoumE_12rust_backend11application5adminNtB2_12AdminService22force_delete_equipment
FN:197,_RNvMNtNtCs4kTbYauoumE_12rust_backend11application5adminNtB2_12AdminService29toggle_equipment_availability
FN:42,_RNvMNtNtCs4kTbYauoumE_12rust_backend11application5adminNtB2_12AdminService9get_stats
FNDA:0,_RNCNCNvMNtNtCscP9pq2ikS3v_12rust_backend11application5adminNtB6_12AdminService14list_equipment00Ba_
FNDA:0,_RNCNCNvMNtNtCscP9pq2ikS3v_12rust_backend11application5adminNtB6_12AdminService15get_user_detail00Ba_
FNDA:0,_RNCNCNvMNtNtCscP9pq2ikS3v_12rust_backend11application5adminNtB6_12AdminService15update_category00Ba_
FNDA:0,_RNCNvMNtNtCscP9pq2ikS3v_12rust_backend11application5adminNtB4_12AdminService10list_users0B8_
FNDA:0,_RNCNvMNtNtCscP9pq2ikS3v_12rust_backend11application5adminNtB4_12AdminService11delete_user0B8_
FNDA:0,_RNCNvMNtNtCscP9pq2ikS3v_12rust_backend11application5adminNtB4_12AdminService13require_admin0B8_
FNDA:0,_RNCNvMNtNtCscP9pq2ikS3v_12rust_backend11application5adminNtB4_12AdminService14list_equipment0B8_
FNDA:0,_RNCNvMNtNtCscP9pq2ikS3v_12rust_backend11application5adminNtB4_12AdminService15create_category0B8_
FNDA:0,_RNCNvMNtNtCscP9pq2ikS3v_12rust_backend11application5adminNtB4_12AdminService15delete_category0B8_
FNDA:0,_RNCNvMNtNtCscP9pq2ikS3v_12rust_backend11application5adminNtB4_12AdminService15get_user_detail0B8_
FNDA:0,_RNCNvMNtNtCscP9pq2ikS3v_12rust_backend11application5adminNtB4_12AdminService15list_categories0B8_
FNDA:0,_RNCNvMNtNtCscP9pq2ikS3v_12rust_backend11application5adminNtB4_12AdminService15update_category0B8_
FNDA:0,_RNCNvMNtNtCscP9pq2ikS3v_12rust_backend11application5adminNtB4_12AdminService16update_user_role0B8_
FNDA:0,_RNCNvMNtNtCscP9pq2ikS3v_12rust_backend11application5adminNtB4_12AdminService22force_delete_equipment0B8_
FNDA:0,_RNCNvMNtNtCscP9pq2ikS3v_12rust_backend11application5adminNtB4_12AdminService29toggle_equipment_availability0B8_
FNDA:0,_RNCNvMNtNtCscP9pq2ikS3v_12rust_backend11application5adminNtB4_12AdminService9get_stats0B8_
FNDA:0,_RNvMNtNtCscP9pq2ikS3v_12rust_backend11application5adminNtB2_12AdminService10list_users
FNDA:0,_RNvMNtNtCscP9pq2ikS3v_12rust_backend11application5adminNtB2_12AdminService11delete_user
FNDA:0,_RNvMNtNtCscP9pq2ikS3v_12rust_backend11application5adminNtB2_12AdminService13require_admin
FNDA:0,_RNvMNtNtCscP9pq2ikS3v_12rust_backend11application5adminNtB2_12AdminService14list_equipment
FNDA:0,_RNvMNtNtCscP9pq2ikS3v_12rust_backend11application5adminNtB2_12AdminService15create_category
FNDA:0,_RNvMNtNtCscP9pq2ikS3v_12rust_backend11application5adminNtB2_12AdminService15delete_category
FNDA:0,_RNvMNtNtCscP9pq2ikS3v_12rust_backend11application5adminNtB2_12AdminService15get_user_detail
FNDA:0,_RNvMNtNtCscP9pq2ikS3v_12rust_backend11application5adminNtB2_12AdminService15list_categories
FNDA:0,_RNvMNtNtCscP9pq2ikS3v_12rust_backend11application5adminNtB2_12AdminService15update_category
FNDA:0,_RNvMNtNtCscP9pq2ikS3v_12rust_backend11application5adminNtB2_12AdminService16update_user_role
FNDA:0,_RNvMNtNtCscP9pq2ikS3v_12rust_backend11application5adminNtB2_12AdminService22force_delete_equipment
FNDA:0,_RNvMNtNtCscP9pq2ikS3v_12rust_backend11application5adminNtB2_12AdminService29toggle_equipment_availability
FNDA:27,_RNvMNtNtCscP9pq2ikS3v_12rust_backend11application5adminNtB2_12AdminService3new
FNDA:0,_RNvMNtNtCscP9pq2ikS3v_12rust_backend11application5adminNtB2_12AdminService9get_stats
FNDA:3,_RNvMNtNtCs4kTbYauoumE_12rust_backend11application5adminNtB2_12AdminService3new
FNDA:0,_RNCNCNvMNtNtCs4kTbYauoumE_12rust_backend11application5adminNtB6_12AdminService14list_equipment00Ba_
FNDA:0,_RNCNCNvMNtNtCs4kTbYauoumE_12rust_backend11application5adminNtB6_12AdminService15get_user_detail00Ba_
FNDA:0,_RNCNCNvMNtNtCs4kTbYauoumE_12rust_backend11application5adminNtB6_12AdminService15update_category00Ba_
FNDA:0,_RNCNvMNtNtCs4kTbYauoumE_12rust_backend11application5adminNtB4_12AdminService10list_users0B8_
FNDA:0,_RNCNvMNtNtCs4kTbYauoumE_12rust_backend11application5adminNtB4_12AdminService11delete_user0B8_
FNDA:0,_RNCNvMNtNtCs4kTbYauoumE_12rust_backend11application5adminNtB4_12AdminService13require_admin0B8_
FNDA:0,_RNCNvMNtNtCs4kTbYauoumE_12rust_backend11application5adminNtB4_12AdminService14list_equipment0B8_
FNDA:0,_RNCNvMNtNtCs4kTbYauoumE_12rust_backend11application5adminNtB4_12AdminService15create_category0B8_
FNDA:0,_RNCNvMNtNtCs4kTbYauoumE_12rust_backend11application5adminNtB4_12AdminService15delete_category0B8_
FNDA:0,_RNCNvMNtNtCs4kTbYauoumE_12rust_backend11application5adminNtB4_12AdminService15get_user_detail0B8_
FNDA:0,_RNCNvMNtNtCs4kTbYauoumE_12rust_backend11application5adminNtB4_12AdminService15list_categories0B8_
FNDA:0,_RNCNvMNtNtCs4kTbYauoumE_12rust_backend11application5adminNtB4_12AdminService15update_category0B8_
FNDA:0,_RNCNvMNtNtCs4kTbYauoumE_12rust_backend11application5adminNtB4_12AdminService16update_user_role0B8_
FNDA:0,_RNCNvMNtNtCs4kTbYauoumE_12rust_backend11application5adminNtB4_12AdminService22force_delete_equipment0B8_
FNDA:0,_RNCNvMNtNtCs4kTbYauoumE_12rust_backend11application5adminNtB4_12AdminService29toggle_equipment_availability0B8_
FNDA:0,_RNCNvMNtNtCs4kTbYauoumE_12rust_backend11application5adminNtB4_12AdminService9get_stats0B8_
FNDA:0,_RNvMNtNtCs4kTbYauoumE_12rust_backend11application5adminNtB2_12AdminService10list_users
FNDA:0,_RNvMNtNtCs4kTbYauoumE_12rust_backend11application5adminNtB2_12AdminService11delete_user
FNDA:0,_RNvMNtNtCs4kTbYauoumE_12rust_backend11application5adminNtB2_12AdminService13require_admin
FNDA:0,_RNvMNtNtCs4kTbYauoumE_12rust_backend11application5adminNtB2_12AdminService14list_equipment
FNDA:0,_RNvMNtNtCs4kTbYauoumE_12rust_backend11application5adminNtB2_12AdminService15create_category
FNDA:0,_RNvMNtNtCs4kTbYauoumE_12rust_backend11application5adminNtB2_12AdminService15delete_category
FNDA:0,_RNvMNtNtCs4kTbYauoumE_12rust_backend11application5adminNtB2_12AdminService15get_user_detail
FNDA:0,_RNvMNtNtCs4kTbYauoumE_12rust_backend11application5adminNtB2_12AdminService15list_categories
FNDA:0,_RNvMNtNtCs4kTbYauoumE_12rust_backend11application5adminNtB2_12AdminService15update_category
FNDA:0,_RNvMNtNtCs4kTbYauoumE_12rust_backend11application5adminNtB2_12AdminService16update_user_role
FNDA:0,_RNvMNtNtCs4kTbYauoumE_12rust_backend11application5adminNtB2_12AdminService22force_delete_equipment
FNDA:0,_RNvMNtNtCs4kTbYauoumE_12rust_backend11application5adminNtB2_12AdminService29toggle_equipment_availability
FNDA:0,_RNvMNtNtCs4kTbYauoumE_12rust_backend11application5adminNtB2_12AdminService9get_stats
FNF:30
FNH:1
DA:30,30
DA:31,30
DA:32,30
DA:33,30
DA:34,30
DA:35,30
DA:36,30
DA:37,30
DA:38,30
DA:39,30
DA:40,30
DA:42,0
DA:43,0
DA:44,0
DA:45,0
DA:46,0
DA:47,0
DA:48,0
DA:49,0
DA:50,0
DA:51,0
DA:52,0
DA:54,0
DA:55,0
DA:56,0
DA:57,0
DA:58,0
DA:59,0
DA:60,0
DA:62,0
DA:63,0
DA:64,0
DA:65,0
DA:66,0
DA:67,0
DA:68,0
DA:69,0
DA:70,0
DA:71,0
DA:72,0
DA:73,0
DA:74,0
DA:75,0
DA:76,0
DA:77,0
DA:79,0
DA:80,0
DA:81,0
DA:82,0
DA:83,0
DA:84,0
DA:85,0
DA:86,0
DA:87,0
DA:88,0
DA:89,0
DA:90,0
DA:91,0
DA:93,0
DA:94,0
DA:95,0
DA:96,0
DA:97,0
DA:98,0
DA:99,0
DA:101,0
DA:102,0
DA:103,0
DA:104,0
DA:105,0
DA:106,0
DA:107,0
DA:109,0
DA:110,0
DA:112,0
DA:113,0
DA:114,0
DA:115,0
DA:116,0
DA:117,0
DA:118,0
DA:119,0
DA:120,0
DA:122,0
DA:123,0
DA:124,0
DA:125,0
DA:126,0
DA:128,0
DA:132,0
DA:134,0
DA:135,0
DA:136,0
DA:137,0
DA:139,0
DA:140,0
DA:141,0
DA:142,0
DA:143,0
DA:144,0
DA:145,0
DA:147,0
DA:152,0
DA:153,0
DA:155,0
DA:156,0
DA:157,0
DA:158,0
DA:159,0
DA:160,0
DA:161,0
DA:162,0
DA:163,0
DA:164,0
DA:165,0
DA:166,0
DA:169,0
DA:170,0
DA:171,0
DA:172,0
DA:173,0
DA:174,0
DA:175,0
DA:176,0
DA:177,0
DA:178,0
DA:179,0
DA:180,0
DA:181,0
DA:182,0
DA:183,0
DA:185,0
DA:187,0
DA:188,0
DA:189,0
DA:194,0
DA:195,0
DA:197,0
DA:198,0
DA:199,0
DA:200,0
DA:201,0
DA:202,0
DA:203,0
DA:204,0
DA:210,0
DA:211,0
DA:212,0
DA:213,0
DA:215,0
DA:216,0
DA:217,0
DA:218,0
DA:219,0
DA:220,0
DA:221,0
DA:222,0
DA:223,0
DA:224,0
DA:225,0
DA:227,0
DA:228,0
DA:229,0
DA:230,0
DA:232,0
DA:233,0
DA:234,0
DA:235,0
DA:236,0
DA:237,0
DA:238,0
DA:239,0
DA:245,0
DA:246,0
DA:247,0
DA:248,0
DA:249,0
DA:250,0
DA:251,0
DA:252,0
DA:253,0
DA:255,0
DA:256,0
DA:257,0
DA:258,0
DA:259,0
DA:260,0
DA:261,0
DA:263,0
DA:264,0
DA:265,0
DA:266,0
DA:267,0
DA:268,0
DA:269,0
DA:271,0
DA:278,0
DA:279,0
DA:280,0
DA:281,0
DA:282,0
DA:283,0
DA:284,0
DA:285,0
DA:286,0
DA:288,0
DA:289,0
DA:291,0
DA:292,0
DA:297,0
DA:298,0
BRF:0
BRH:0
LF:226
LH:11
end_of_record
SF:/Users/mykolborghese/rust-backend/src/application/auth_service.rs
FN:28,_RNvMNtNtCscP9pq2ikS3v_12rust_backend11application12auth_serviceNtB2_11AuthService20with_auth0_namespace
FN:103,_RNvMNtNtCscP9pq2ikS3v_12rust_backend11application12auth_serviceNtB2_11AuthService22create_user_from_auth0
FN:49,_RNvMNtNtCscP9pq2ikS3v_12rust_backend11application12auth_serviceNtB2_11AuthService22upsert_user_from_auth0
FN:78,_RNvMNtNtCscP9pq2ikS3v_12rust_backend11application12auth_serviceNtB2_11AuthService29maybe_update_user_from_claims
FN:33,_RNvMNtNtCscP9pq2ikS3v_12rust_backend11application12auth_serviceNtB2_11AuthService2me
FN:43,_RNvMNtNtCscP9pq2ikS3v_12rust_backend11application12auth_serviceNtB2_11AuthService30ensure_active_session_for_user
FN:20,_RNvMNtNtCscP9pq2ikS3v_12rust_backend11application12auth_serviceNtB2_11AuthService3new
FN:178,_RNvNtNtCscP9pq2ikS3v_12rust_backend11application12auth_service17map_user_response
FN:107,_RNCNCNvMNtNtCscP9pq2ikS3v_12rust_backend11application12auth_serviceNtB6_11AuthService22create_user_from_auth000Ba_
FN:150,_RNCNCNvMNtNtCscP9pq2ikS3v_12rust_backend11application12auth_serviceNtB6_11AuthService22create_user_from_auth00s_0Ba_
FN:62,_RNCNCNvMNtNtCscP9pq2ikS3v_12rust_backend11application12auth_serviceNtB6_11AuthService22upsert_user_from_auth000Ba_
FN:93,_RNCNCNvMNtNtCscP9pq2ikS3v_12rust_backend11application12auth_serviceNtB6_11AuthService29maybe_update_user_from_claims00Ba_
FN:38,_RNCNCNvMNtNtCscP9pq2ikS3v_12rust_backend11application12auth_serviceNtB6_11AuthService2me00Ba_
FN:103,_RNCNvMNtNtCscP9pq2ikS3v_12rust_backend11application12auth_serviceNtB4_11AuthService22create_user_from_auth00B8_
FN:52,_RNCNvMNtNtCscP9pq2ikS3v_12rust_backend11application12auth_serviceNtB4_11AuthService22upsert_user_from_auth00B8_
FN:82,_RNCNvMNtNtCscP9pq2ikS3v_12rust_backend11application12auth_serviceNtB4_11AuthService29maybe_update_user_from_claims0B8_
FN:33,_RNCNvMNtNtCscP9pq2ikS3v_12rust_backend11application12auth_serviceNtB4_11AuthService2me0B8_
FN:43,_RNCNvMNtNtCscP9pq2ikS3v_12rust_backend11application12auth_serviceNtB4_11AuthService30ensure_active_session_for_user0B8_
FN:43,_RNCNvMNtNtCs4kTbYauoumE_12rust_backend11application12auth_serviceNtB4_11AuthService30ensure_active_session_for_user0B8_
FN:107,_RNCNCNvMNtNtCs4kTbYauoumE_12rust_backend11application12auth_serviceNtB6_11AuthService22create_user_from_auth000Ba_
FN:150,_RNCNCNvMNtNtCs4kTbYauoumE_12rust_backend11application12auth_serviceNtB6_11AuthService22create_user_from_auth00s_0Ba_
FN:62,_RNCNCNvMNtNtCs4kTbYauoumE_12rust_backend11application12auth_serviceNtB6_11AuthService22upsert_user_from_auth000Ba_
FN:93,_RNCNCNvMNtNtCs4kTbYauoumE_12rust_backend11application12auth_serviceNtB6_11AuthService29maybe_update_user_from_claims00Ba_
FN:38,_RNCNCNvMNtNtCs4kTbYauoumE_12rust_backend11application12auth_serviceNtB6_11AuthService2me00Ba_
FN:103,_RNCNvMNtNtCs4kTbYauoumE_12rust_backend11application12auth_serviceNtB4_11AuthService22create_user_from_auth00B8_
FN:52,_RNCNvMNtNtCs4kTbYauoumE_12rust_backend11application12auth_serviceNtB4_11AuthService22upsert_user_from_auth00B8_
FN:82,_RNCNvMNtNtCs4kTbYauoumE_12rust_backend11application12auth_serviceNtB4_11AuthService29maybe_update_user_from_claims0B8_
FN:33,_RNCNvMNtNtCs4kTbYauoumE_12rust_backend11application12auth_serviceNtB4_11AuthService2me0B8_
FN:28,_RNvMNtNtCs4kTbYauoumE_12rust_backend11application12auth_serviceNtB2_11AuthService20with_auth0_namespace
FN:103,_RNvMNtNtCs4kTbYauoumE_12rust_backend11application12auth_serviceNtB2_11AuthService22create_user_from_auth0
FN:49,_RNvMNtNtCs4kTbYauoumE_12rust_backend11application12auth_serviceNtB2_11AuthService22upsert_user_from_auth0
FN:78,_RNvMNtNtCs4kTbYauoumE_12rust_backend11application12auth_serviceNtB2_11AuthService29maybe_update_user_from_claims
FN:33,_RNvMNtNtCs4kTbYauoumE_12rust_backend11application12auth_serviceNtB2_11AuthService2me
FN:178,_RNvNtNtCs4kTbYauoumE_12rust_backend11application12auth_service17map_user_response
FN:43,_RNvMNtNtCs4kTbYauoumE_12rust_backend11application12auth_serviceNtB2_11AuthService30ensure_active_session_for_user
FN:20,_RNvMNtNtCs4kTbYauoumE_12rust_backend11application12auth_serviceNtB2_11AuthService3new
FNDA:0,_RNvMNtNtCscP9pq2ikS3v_12rust_backend11application12auth_serviceNtB2_11AuthService20with_auth0_namespace
FNDA:0,_RNvMNtNtCscP9pq2ikS3v_12rust_backend11application12auth_serviceNtB2_11AuthService22create_user_from_auth0
FNDA:0,_RNvMNtNtCscP9pq2ikS3v_12rust_backend11application12auth_serviceNtB2_11AuthService22upsert_user_from_auth0
FNDA:0,_RNvMNtNtCscP9pq2ikS3v_12rust_backend11application12auth_serviceNtB2_11AuthService29maybe_update_user_from_claims
FNDA:0,_RNvMNtNtCscP9pq2ikS3v_12rust_backend11application12auth_serviceNtB2_11AuthService2me
FNDA:0,_RNvMNtNtCscP9pq2ikS3v_12rust_backend11application12auth_serviceNtB2_11AuthService30ensure_active_session_for_user
FNDA:27,_RNvMNtNtCscP9pq2ikS3v_12rust_backend11application12auth_serviceNtB2_11AuthService3new
FNDA:0,_RNvNtNtCscP9pq2ikS3v_12rust_backend11application12auth_service17map_user_response
FNDA:0,_RNCNCNvMNtNtCscP9pq2ikS3v_12rust_backend11application12auth_serviceNtB6_11AuthService22create_user_from_auth000Ba_
FNDA:0,_RNCNCNvMNtNtCscP9pq2ikS3v_12rust_backend11application12auth_serviceNtB6_11AuthService22create_user_from_auth00s_0Ba_
FNDA:0,_RNCNCNvMNtNtCscP9pq2ikS3v_12rust_backend11application12auth_serviceNtB6_11AuthService22upsert_user_from_auth000Ba_
FNDA:0,_RNCNCNvMNtNtCscP9pq2ikS3v_12rust_backend11application12auth_serviceNtB6_11AuthService29maybe_update_user_from_claims00Ba_
FNDA:0,_RNCNCNvMNtNtCscP9pq2ikS3v_12rust_backend11application12auth_serviceNtB6_11AuthService2me00Ba_
FNDA:0,_RNCNvMNtNtCscP9pq2ikS3v_12rust_backend11application12auth_serviceNtB4_11AuthService22create_user_from_auth00B8_
FNDA:0,_RNCNvMNtNtCscP9pq2ikS3v_12rust_backend11application12auth_serviceNtB4_11AuthService22upsert_user_from_auth00B8_
FNDA:0,_RNCNvMNtNtCscP9pq2ikS3v_12rust_backend11application12auth_serviceNtB4_11AuthService29maybe_update_user_from_claims0B8_
FNDA:0,_RNCNvMNtNtCscP9pq2ikS3v_12rust_backend11application12auth_serviceNtB4_11AuthService2me0B8_
FNDA:0,_RNCNvMNtNtCscP9pq2ikS3v_12rust_backend11application12auth_serviceNtB4_11AuthService30ensure_active_session_for_user0B8_
FNDA:1,_RNCNvMNtNtCs4kTbYauoumE_12rust_backend11application12auth_serviceNtB4_11AuthService30ensure_active_session_for_user0B8_
FNDA:0,_RNCNCNvMNtNtCs4kTbYauoumE_12rust_backend11application12auth_serviceNtB6_11AuthService22create_user_from_auth000Ba_
FNDA:0,_RNCNCNvMNtNtCs4kTbYauoumE_12rust_backend11application12auth_serviceNtB6_11AuthService22create_user_from_auth00s_0Ba_
FNDA:0,_RNCNCNvMNtNtCs4kTbYauoumE_12rust_backend11application12auth_serviceNtB6_11AuthService22upsert_user_from_auth000Ba_
FNDA:0,_RNCNCNvMNtNtCs4kTbYauoumE_12rust_backend11application12auth_serviceNtB6_11AuthService29maybe_update_user_from_claims00Ba_
FNDA:0,_RNCNCNvMNtNtCs4kTbYauoumE_12rust_backend11application12auth_serviceNtB6_11AuthService2me00Ba_
FNDA:0,_RNCNvMNtNtCs4kTbYauoumE_12rust_backend11application12auth_serviceNtB4_11AuthService22create_user_from_auth00B8_
FNDA:0,_RNCNvMNtNtCs4kTbYauoumE_12rust_backend11application12auth_serviceNtB4_11AuthService22upsert_user_from_auth00B8_
FNDA:0,_RNCNvMNtNtCs4kTbYauoumE_12rust_backend11application12auth_serviceNtB4_11AuthService29maybe_update_user_from_claims0B8_
FNDA:0,_RNCNvMNtNtCs4kTbYauoumE_12rust_backend11application12auth_serviceNtB4_11AuthService2me0B8_
FNDA:0,_RNvMNtNtCs4kTbYauoumE_12rust_backend11application12auth_serviceNtB2_11AuthService20with_auth0_namespace
FNDA:0,_RNvMNtNtCs4kTbYauoumE_12rust_backend11application12auth_serviceNtB2_11AuthService22create_user_from_auth0
FNDA:0,_RNvMNtNtCs4kTbYauoumE_12rust_backend11application12auth_serviceNtB2_11AuthService22upsert_user_from_auth0
FNDA:0,_RNvMNtNtCs4kTbYauoumE_12rust_backend11application12auth_serviceNtB2_11AuthService29maybe_update_user_from_claims
FNDA:0,_RNvMNtNtCs4kTbYauoumE_12rust_backend11application12auth_serviceNtB2_11AuthService2me
FNDA:0,_RNvNtNtCs4kTbYauoumE_12rust_backend11application12auth_service17map_user_response
FNDA:1,_RNvMNtNtCs4kTbYauoumE_12rust_backend11application12auth_serviceNtB2_11AuthService30ensure_active_session_for_user
FNDA:3,_RNvMNtNtCs4kTbYauoumE_12rust_backend11application12auth_serviceNtB2_11AuthService3new
FNF:18
FNH:3
DA:20,30
DA:21,30
DA:22,30
DA:23,30
DA:24,30
DA:25,30
DA:26,30
DA:28,0
DA:29,0
DA:30,0
DA:31,0
DA:33,0
DA:34,0
DA:35,0
DA:36,0
DA:37,0
DA:38,0
DA:40,0
DA:41,0
DA:43,1
DA:46,1
DA:47,1
DA:49,0
DA:50,0
DA:51,0
DA:52,0
DA:53,0
DA:54,0
DA:55,0
DA:56,0
DA:58,0
DA:59,0
DA:60,0
DA:61,0
DA:62,0
DA:63,0
DA:64,0
DA:66,0
DA:67,0
DA:68,0
DA:69,0
DA:70,0
DA:71,0
DA:72,0
DA:74,0
DA:76,0
DA:78,0
DA:79,0
DA:80,0
DA:81,0
DA:82,0
DA:83,0
DA:84,0
DA:85,0
DA:87,0
DA:88,0
DA:89,0
DA:91,0
DA:92,0
DA:93,0
DA:94,0
DA:95,0
DA:96,0
DA:97,0
DA:100,0
DA:101,0
DA:103,0
DA:104,0
DA:105,0
DA:106,0
DA:107,0
DA:109,0
DA:110,0
DA:111,0
DA:112,0
DA:113,0
DA:115,0
DA:116,0
DA:117,0
DA:118,0
DA:119,0
DA:120,0
DA:121,0
DA:122,0
DA:123,0
DA:124,0
DA:125,0
DA:128,0
DA:129,0
DA:130,0
DA:131,0
DA:132,0
DA:133,0
DA:134,0
DA:135,0
DA:136,0
DA:138,0
DA:139,0
DA:141,0
DA:142,0
DA:143,0
DA:144,0
DA:146,0
DA:147,0
DA:148,0
DA:149,0
DA:150,0
DA:151,0
DA:152,0
DA:153,0
DA:154,0
DA:155,0
DA:156,0
DA:157,0
DA:158,0
DA:159,0
DA:160,0
DA:161,0
DA:162,0
DA:163,0
DA:164,0
DA:165,0
DA:167,0
DA:168,0
DA:169,0
DA:173,0
DA:174,0
DA:175,0
DA:178,0
DA:179,0
DA:180,0
DA:181,0
DA:182,0
DA:183,0
DA:184,0
DA:185,0
DA:186,0
DA:187,0
BRF:0
BRH:0
LF:150
LH:11
end_of_record
SF:/Users/mykolborghese/rust-backend/src/application/category_service.rs
FN:25,_RNCNCNvMNtNtCscP9pq2ikS3v_12rust_backend11application16category_serviceNtB6_15CategoryService4list00Ba_
FN:39,_RNCNCNvMNtNtCscP9pq2ikS3v_12rust_backend11application16category_serviceNtB6_15CategoryService9get_by_id00Ba_
FN:51,_RNCNCNvMNtNtCscP9pq2ikS3v_12rust_backend11application16category_serviceNtB6_15CategoryService9get_by_id0s_0Ba_
FN:19,_RNCNvMNtNtCscP9pq2ikS3v_12rust_backend11application16category_serviceNtB4_15CategoryService4list0B8_
FN:34,_RNCNvMNtNtCscP9pq2ikS3v_12rust_backend11application16category_serviceNtB4_15CategoryService9get_by_id0B8_
FN:15,_RNvMNtNtCscP9pq2ikS3v_12rust_backend11application16category_serviceNtB2_15CategoryService3new
FN:19,_RNvMNtNtCscP9pq2ikS3v_12rust_backend11application16category_serviceNtB2_15CategoryService4list
FN:34,_RNvMNtNtCscP9pq2ikS3v_12rust_backend11application16category_serviceNtB2_15CategoryService9get_by_id
FN:15,_RNvMNtNtCs4kTbYauoumE_12rust_backend11application16category_serviceNtB2_15CategoryService3new
FN:25,_RNCNCNvMNtNtCs4kTbYauoumE_12rust_backend11application16category_serviceNtB6_15CategoryService4list00Ba_
FN:39,_RNCNCNvMNtNtCs4kTbYauoumE_12rust_backend11application16category_serviceNtB6_15CategoryService9get_by_id00Ba_
FN:51,_RNCNCNvMNtNtCs4kTbYauoumE_12rust_backend11application16category_serviceNtB6_15CategoryService9get_by_id0s_0Ba_
FN:19,_RNCNvMNtNtCs4kTbYauoumE_12rust_backend11application16category_serviceNtB4_15CategoryService4list0B8_
FN:34,_RNCNvMNtNtCs4kTbYauoumE_12rust_backend11application16category_serviceNtB4_15CategoryService9get_by_id0B8_
FN:19,_RNvMNtNtCs4kTbYauoumE_12rust_backend11application16category_serviceNtB2_15CategoryService4list
FN:34,_RNvMNtNtCs4kTbYauoumE_12rust_backend11application16category_serviceNtB2_15CategoryService9get_by_id
FNDA:0,_RNCNCNvMNtNtCscP9pq2ikS3v_12rust_backend11application16category_serviceNtB6_15CategoryService4list00Ba_
FNDA:0,_RNCNCNvMNtNtCscP9pq2ikS3v_12rust_backend11application16category_serviceNtB6_15CategoryService9get_by_id00Ba_
FNDA:0,_RNCNCNvMNtNtCscP9pq2ikS3v_12rust_backend11application16category_serviceNtB6_15CategoryService9get_by_id0s_0Ba_
FNDA:0,_RNCNvMNtNtCscP9pq2ikS3v_12rust_backend11application16category_serviceNtB4_15CategoryService4list0B8_
FNDA:0,_RNCNvMNtNtCscP9pq2ikS3v_12rust_backend11application16category_serviceNtB4_15CategoryService9get_by_id0B8_
FNDA:27,_RNvMNtNtCscP9pq2ikS3v_12rust_backend11application16category_serviceNtB2_15CategoryService3new
FNDA:0,_RNvMNtNtCscP9pq2ikS3v_12rust_backend11application16category_serviceNtB2_15CategoryService4list
FNDA:0,_RNvMNtNtCscP9pq2ikS3v_12rust_backend11application16category_serviceNtB2_15CategoryService9get_by_id
FNDA:3,_RNvMNtNtCs4kTbYauoumE_12rust_backend11application16category_serviceNtB2_15CategoryService3new
FNDA:0,_RNCNCNvMNtNtCs4kTbYauoumE_12rust_backend11application16category_serviceNtB6_15CategoryService4list00Ba_
FNDA:0,_RNCNCNvMNtNtCs4kTbYauoumE_12rust_backend11application16category_serviceNtB6_15CategoryService9get_by_id00Ba_
FNDA:0,_RNCNCNvMNtNtCs4kTbYauoumE_12rust_backend11application16category_serviceNtB6_15CategoryService9get_by_id0s_0Ba_
FNDA:0,_RNCNvMNtNtCs4kTbYauoumE_12rust_backend11application16category_serviceNtB4_15CategoryService4list0B8_
FNDA:0,_RNCNvMNtNtCs4kTbYauoumE_12rust_backend11application16category_serviceNtB4_15CategoryService9get_by_id0B8_
FNDA:0,_RNvMNtNtCs4kTbYauoumE_12rust_backend11application16category_serviceNtB2_15CategoryService4list
FNDA:0,_RNvMNtNtCs4kTbYauoumE_12rust_backend11application16category_serviceNtB2_15CategoryService9get_by_id
FNF:8
FNH:1
DA:15,30
DA:16,30
DA:17,30
DA:19,0
DA:20,0
DA:22,0
DA:23,0
DA:24,0
DA:25,0
DA:26,0
DA:27,0
DA:28,0
DA:29,0
DA:30,0
DA:31,0
DA:32,0
DA:34,0
DA:35,0
DA:36,0
DA:37,0
DA:38,0
DA:39,0
DA:41,0
DA:44,0
DA:45,0
DA:46,0
DA:47,0
DA:48,0
DA:49,0
DA:50,0
DA:51,0
DA:52,0
DA:53,0
DA:54,0
DA:55,0
DA:56,0
DA:57,0
DA:59,0
BRF:0
BRH:0
LF:41
LH:3
end_of_record
SF:/Users/mykolborghese/rust-backend/src/application/equipment/auth.rs
FN:6,_RNvNtNtNtCscP9pq2ikS3v_12rust_backend11application9equipment4auth22check_equipment_access
FN:10,_RNCNvNtNtNtCscP9pq2ikS3v_12rust_backend11application9equipment4auth22check_equipment_access0B9_
FN:6,_RNvNtNtNtCs4kTbYauoumE_12rust_backend11application9equipment4auth22check_equipment_access
FN:10,_RNCNvNtNtNtCs4kTbYauoumE_12rust_backend11application9equipment4auth22check_equipment_access0B9_
FNDA:0,_RNvNtNtNtCscP9pq2ikS3v_12rust_backend11application9equipment4auth22check_equipment_access
FNDA:0,_RNCNvNtNtNtCscP9pq2ikS3v_12rust_backend11application9equipment4auth22check_equipment_access0B9_
FNDA:0,_RNvNtNtNtCs4kTbYauoumE_12rust_backend11application9equipment4auth22check_equipment_access
FNDA:0,_RNCNvNtNtNtCs4kTbYauoumE_12rust_backend11application9equipment4auth22check_equipment_access0B9_
FNF:2
FNH:0
DA:6,0
DA:7,0
DA:8,0
DA:9,0
DA:10,0
DA:11,0
DA:12,0
DA:13,0
DA:15,0
DA:16,0
DA:17,0
DA:18,0
DA:20,0
DA:21,0
DA:22,0
DA:24,0
DA:25,0
DA:26,0
DA:27,0
BRF:0
BRH:0
LF:20
LH:0
end_of_record
SF:/Users/mykolborghese/rust-backend/src/application/equipment/mapper.rs
FN:21,_RNCNvNtNtNtCscP9pq2ikS3v_12rust_backend11application9equipment6mapper15map_coordinates0B9_
FN:52,_RNCNvNtNtNtCscP9pq2ikS3v_12rust_backend11application9equipment6mapper37map_equipment_with_photos_to_response0B9_
FN:17,_RNvNtNtNtCscP9pq2ikS3v_12rust_backend11application9equipment6mapper15map_coordinates
FN:5,_RNvNtNtNtCscP9pq2ikS3v_12rust_backend11application9equipment6mapper15parse_condition
FN:26,_RNvNtNtNtCscP9pq2ikS3v_12rust_backend11application9equipment6mapper25map_equipment_to_response
FN:44,_RNvNtNtNtCscP9pq2ikS3v_12rust_backend11application9equipment6mapper37map_equipment_with_photos_to_response
FN:21,_RNCNvNtNtNtCs4kTbYauoumE_12rust_backend11application9equipment6mapper15map_coordinates0B9_
FN:52,_RNCNvNtNtNtCs4kTbYauoumE_12rust_backend11application9equipment6mapper37map_equipment_with_photos_to_response0B9_
FN:17,_RNvNtNtNtCs4kTbYauoumE_12rust_backend11application9equipment6mapper15map_coordinates
FN:5,_RNvNtNtNtCs4kTbYauoumE_12rust_backend11application9equipment6mapper15parse_condition
FN:26,_RNvNtNtNtCs4kTbYauoumE_12rust_backend11application9equipment6mapper25map_equipment_to_response
FN:44,_RNvNtNtNtCs4kTbYauoumE_12rust_backend11application9equipment6mapper37map_equipment_with_photos_to_response
FNDA:0,_RNCNvNtNtNtCscP9pq2ikS3v_12rust_backend11application9equipment6mapper15map_coordinates0B9_
FNDA:0,_RNCNvNtNtNtCscP9pq2ikS3v_12rust_backend11application9equipment6mapper37map_equipment_with_photos_to_response0B9_
FNDA:0,_RNvNtNtNtCscP9pq2ikS3v_12rust_backend11application9equipment6mapper15map_coordinates
FNDA:0,_RNvNtNtNtCscP9pq2ikS3v_12rust_backend11application9equipment6mapper15parse_condition
FNDA:0,_RNvNtNtNtCscP9pq2ikS3v_12rust_backend11application9equipment6mapper25map_equipment_to_response
FNDA:0,_RNvNtNtNtCscP9pq2ikS3v_12rust_backend11application9equipment6mapper37map_equipment_with_photos_to_response
FNDA:0,_RNCNvNtNtNtCs4kTbYauoumE_12rust_backend11application9equipment6mapper15map_coordinates0B9_
FNDA:0,_RNCNvNtNtNtCs4kTbYauoumE_12rust_backend11application9equipment6mapper37map_equipment_with_photos_to_response0B9_
FNDA:0,_RNvNtNtNtCs4kTbYauoumE_12rust_backend11application9equipment6mapper15map_coordinates
FNDA:0,_RNvNtNtNtCs4kTbYauoumE_12rust_backend11application9equipment6mapper15parse_condition
FNDA:0,_RNvNtNtNtCs4kTbYauoumE_12rust_backend11application9equipment6mapper25map_equipment_to_response
FNDA:0,_RNvNtNtNtCs4kTbYauoumE_12rust_backend11application9equipment6mapper37map_equipment_with_photos_to_response
FNF:6
FNH:0
DA:5,0
DA:6,0
DA:7,0
DA:8,0
DA:9,0
DA:10,0
DA:11,0
DA:12,0
DA:13,0
DA:15,0
DA:17,0
DA:18,0
DA:19,0
DA:20,0
DA:21,0
DA:22,0
DA:23,0
DA:24,0
DA:26,0
DA:27,0
DA:28,0
DA:29,0
DA:30,0
DA:31,0
DA:32,0
DA:33,0
DA:34,0
DA:35,0
DA:36,0
DA:37,0
DA:38,0
DA:39,0
DA:40,0
DA:41,0
DA:42,0
DA:44,0
DA:45,0
DA:46,0
DA:47,0
DA:48,0
DA:49,0
DA:50,0
DA:51,0
DA:52,0
DA:53,0
DA:54,0
DA:55,0
DA:56,0
DA:57,0
DA:58,0
DA:59,0
BRF:0
BRH:0
LF:51
LH:0
end_of_record
SF:/Users/mykolborghese/rust-backend/src/application/equipment/mod.rs
FN:233,_RNvMNtNtCscP9pq2ikS3v_12rust_backend11application9equipmentNtB2_16EquipmentService12delete_photo
FN:28,_RNvMNtNtCscP9pq2ikS3v_12rust_backend11application9equipmentNtB2_16EquipmentService3new
FN:38,_RNvMNtNtCscP9pq2ikS3v_12rust_backend11application9equipmentNtB2_16EquipmentService4list
FN:90,_RNvMNtNtCscP9pq2ikS3v_12rust_backend11application9equipmentNtB2_16EquipmentService6create
FN:176,_RNvMNtNtCscP9pq2ikS3v_12rust_backend11application9equipmentNtB2_16EquipmentService6delete
FN:128,_RNvMNtNtCscP9pq2ikS3v_12rust_backend11application9equipmentNtB2_16EquipmentService6update
FN:188,_RNvMNtNtCscP9pq2ikS3v_12rust_backend11application9equipmentNtB2_16EquipmentService9add_photo
FN:77,_RNvMNtNtCscP9pq2ikS3v_12rust_backend11application9equipmentNtB2_16EquipmentService9get_by_id
FN:243,_RNCNCNvMNtNtCscP9pq2ikS3v_12rust_backend11application9equipmentNtB6_16EquipmentService12delete_photo00Ba_
FN:251,_RNCNCNvMNtNtCscP9pq2ikS3v_12rust_backend11application9equipmentNtB6_16EquipmentService12delete_photo0s_0Ba_
FN:181,_RNCNCNvMNtNtCscP9pq2ikS3v_12rust_backend11application9equipmentNtB6_16EquipmentService6delete00Ba_
FN:140,_RNCNCNvMNtNtCscP9pq2ikS3v_12rust_backend11application9equipmentNtB6_16EquipmentService6update00Ba_
FN:200,_RNCNCNvMNtNtCscP9pq2ikS3v_12rust_backend11application9equipmentNtB6_16EquipmentService9add_photo00Ba_
FN:82,_RNCNCNvMNtNtCscP9pq2ikS3v_12rust_backend11application9equipmentNtB6_16EquipmentService9get_by_id00Ba_
FN:238,_RNCNvMNtNtCscP9pq2ikS3v_12rust_backend11application9equipmentNtB4_16EquipmentService12delete_photo0B8_
FN:41,_RNCNvMNtNtCscP9pq2ikS3v_12rust_backend11application9equipmentNtB4_16EquipmentService4list0B8_
FN:94,_RNCNvMNtNtCscP9pq2ikS3v_12rust_backend11application9equipmentNtB4_16EquipmentService6create0B8_
FN:176,_RNCNvMNtNtCscP9pq2ikS3v_12rust_backend11application9equipmentNtB4_16EquipmentService6delete0B8_
FN:133,_RNCNvMNtNtCscP9pq2ikS3v_12rust_backend11application9equipmentNtB4_16EquipmentService6update0B8_
FN:193,_RNCNvMNtNtCscP9pq2ikS3v_12rust_backend11application9equipmentNtB4_16EquipmentService9add_photo0B8_
FN:77,_RNCNvMNtNtCscP9pq2ikS3v_12rust_backend11application9equipmentNtB4_16EquipmentService9get_by_id0B8_
FN:243,_RNCNCNvMNtNtCs4kTbYauoumE_12rust_backend11application9equipmentNtB6_16EquipmentService12delete_photo00Ba_
FN:251,_RNCNCNvMNtNtCs4kTbYauoumE_12rust_backend11application9equipmentNtB6_16EquipmentService12delete_photo0s_0Ba_
FN:181,_RNCNCNvMNtNtCs4kTbYauoumE_12rust_backend11application9equipmentNtB6_16EquipmentService6delete00Ba_
FN:140,_RNCNCNvMNtNtCs4kTbYauoumE_12rust_backend11application9equipmentNtB6_16EquipmentService6update00Ba_
FN:200,_RNCNCNvMNtNtCs4kTbYauoumE_12rust_backend11application9equipmentNtB6_16EquipmentService9add_photo00Ba_
FN:82,_RNCNCNvMNtNtCs4kTbYauoumE_12rust_backend11application9equipmentNtB6_16EquipmentService9get_by_id00Ba_
FN:238,_RNCNvMNtNtCs4kTbYauoumE_12rust_backend11application9equipmentNtB4_16EquipmentService12delete_photo0B8_
FN:41,_RNCNvMNtNtCs4kTbYauoumE_12rust_backend11application9equipmentNtB4_16EquipmentService4list0B8_
FN:94,_RNCNvMNtNtCs4kTbYauoumE_12rust_backend11application9equipmentNtB4_16EquipmentService6create0B8_
FN:176,_RNCNvMNtNtCs4kTbYauoumE_12rust_backend11application9equipmentNtB4_16EquipmentService6delete0B8_
FN:133,_RNCNvMNtNtCs4kTbYauoumE_12rust_backend11application9equipmentNtB4_16EquipmentService6update0B8_
FN:193,_RNCNvMNtNtCs4kTbYauoumE_12rust_backend11application9equipmentNtB4_16EquipmentService9add_photo0B8_
FN:77,_RNCNvMNtNtCs4kTbYauoumE_12rust_backend11application9equipmentNtB4_16EquipmentService9get_by_id0B8_
FN:233,_RNvMNtNtCs4kTbYauoumE_12rust_backend11application9equipmentNtB2_16EquipmentService12delete_photo
FN:38,_RNvMNtNtCs4kTbYauoumE_12rust_backend11application9equipmentNtB2_16EquipmentService4list
FN:90,_RNvMNtNtCs4kTbYauoumE_12rust_backend11application9equipmentNtB2_16EquipmentService6create
FN:176,_RNvMNtNtCs4kTbYauoumE_12rust_backend11application9equipmentNtB2_16EquipmentService6delete
FN:128,_RNvMNtNtCs4kTbYauoumE_12rust_backend11application9equipmentNtB2_16EquipmentService6update
FN:188,_RNvMNtNtCs4kTbYauoumE_12rust_backend11application9equipmentNtB2_16EquipmentService9add_photo
FN:77,_RNvMNtNtCs4kTbYauoumE_12rust_backend11application9equipmentNtB2_16EquipmentService9get_by_id
FN:28,_RNvMNtNtCs4kTbYauoumE_12rust_backend11application9equipmentNtB2_16EquipmentService3new
FNDA:0,_RNvMNtNtCscP9pq2ikS3v_12rust_backend11application9equipmentNtB2_16EquipmentService12delete_photo
FNDA:27,_RNvMNtNtCscP9pq2ikS3v_12rust_backend11application9equipmentNtB2_16EquipmentService3new
FNDA:0,_RNvMNtNtCscP9pq2ikS3v_12rust_backend11application9equipmentNtB2_16EquipmentService4list
FNDA:0,_RNvMNtNtCscP9pq2ikS3v_12rust_backend11application9equipmentNtB2_16EquipmentService6create
FNDA:0,_RNvMNtNtCscP9pq2ikS3v_12rust_backend11application9equipmentNtB2_16EquipmentService6delete
FNDA:0,_RNvMNtNtCscP9pq2ikS3v_12rust_backend11application9equipmentNtB2_16EquipmentService6update
FNDA:0,_RNvMNtNtCscP9pq2ikS3v_12rust_backend11application9equipmentNtB2_16EquipmentService9add_photo
FNDA:0,_RNvMNtNtCscP9pq2ikS3v_12rust_backend11application9equipmentNtB2_16EquipmentService9get_by_id
FNDA:0,_RNCNCNvMNtNtCscP9pq2ikS3v_12rust_backend11application9equipmentNtB6_16EquipmentService12delete_photo00Ba_
FNDA:0,_RNCNCNvMNtNtCscP9pq2ikS3v_12rust_backend11application9equipmentNtB6_16EquipmentService12delete_photo0s_0Ba_
FNDA:0,_RNCNCNvMNtNtCscP9pq2ikS3v_12rust_backend11application9equipmentNtB6_16EquipmentService6delete00Ba_
FNDA:0,_RNCNCNvMNtNtCscP9pq2ikS3v_12rust_backend11application9equipmentNtB6_16EquipmentService6update00Ba_
FNDA:0,_RNCNCNvMNtNtCscP9pq2ikS3v_12rust_backend11application9equipmentNtB6_16EquipmentService9add_photo00Ba_
FNDA:0,_RNCNCNvMNtNtCscP9pq2ikS3v_12rust_backend11application9equipmentNtB6_16EquipmentService9get_by_id00Ba_
FNDA:0,_RNCNvMNtNtCscP9pq2ikS3v_12rust_backend11application9equipmentNtB4_16EquipmentService12delete_photo0B8_
FNDA:0,_RNCNvMNtNtCscP9pq2ikS3v_12rust_backend11application9equipmentNtB4_16EquipmentService4list0B8_
FNDA:0,_RNCNvMNtNtCscP9pq2ikS3v_12rust_backend11application9equipmentNtB4_16EquipmentService6create0B8_
FNDA:0,_RNCNvMNtNtCscP9pq2ikS3v_12rust_backend11application9equipmentNtB4_16EquipmentService6delete0B8_
FNDA:0,_RNCNvMNtNtCscP9pq2ikS3v_12rust_backend11application9equipmentNtB4_16EquipmentService6update0B8_
FNDA:0,_RNCNvMNtNtCscP9pq2ikS3v_12rust_backend11application9equipmentNtB4_16EquipmentService9add_photo0B8_
FNDA:0,_RNCNvMNtNtCscP9pq2ikS3v_12rust_backend11application9equipmentNtB4_16EquipmentService9get_by_id0B8_
FNDA:0,_RNCNCNvMNtNtCs4kTbYauoumE_12rust_backend11application9equipmentNtB6_16EquipmentService12delete_photo00Ba_
FNDA:0,_RNCNCNvMNtNtCs4kTbYauoumE_12rust_backend11application9equipmentNtB6_16EquipmentService12delete_photo0s_0Ba_
FNDA:0,_RNCNCNvMNtNtCs4kTbYauoumE_12rust_backend11application9equipmentNtB6_16EquipmentService6delete00Ba_
FNDA:0,_RNCNCNvMNtNtCs4kTbYauoumE_12rust_backend11application9equipmentNtB6_16EquipmentService6update00Ba_
FNDA:0,_RNCNCNvMNtNtCs4kTbYauoumE_12rust_backend11application9equipmentNtB6_16EquipmentService9add_photo00Ba_
FNDA:0,_RNCNCNvMNtNtCs4kTbYauoumE_12rust_backend11application9equipmentNtB6_16EquipmentService9get_by_id00Ba_
FNDA:0,_RNCNvMNtNtCs4kTbYauoumE_12rust_backend11application9equipmentNtB4_16EquipmentService12delete_photo0B8_
FNDA:0,_RNCNvMNtNtCs4kTbYauoumE_12rust_backend11application9equipmentNtB4_16EquipmentService4list0B8_
FNDA:0,_RNCNvMNtNtCs4kTbYauoumE_12rust_backend11application9equipmentNtB4_16EquipmentService6create0B8_
FNDA:0,_RNCNvMNtNtCs4kTbYauoumE_12rust_backend11application9equipmentNtB4_16EquipmentService6delete0B8_
FNDA:0,_RNCNvMNtNtCs4kTbYauoumE_12rust_backend11application9equipmentNtB4_16EquipmentService6update0B8_
FNDA:0,_RNCNvMNtNtCs4kTbYauoumE_12rust_backend11application9equipmentNtB4_16EquipmentService9add_photo0B8_
FNDA:0,_RNCNvMNtNtCs4kTbYauoumE_12rust_backend11application9equipmentNtB4_16EquipmentService9get_by_id0B8_
FNDA:0,_RNvMNtNtCs4kTbYauoumE_12rust_backend11application9equipmentNtB2_16EquipmentService12delete_photo
FNDA:0,_RNvMNtNtCs4kTbYauoumE_12rust_backend11application9equipmentNtB2_16EquipmentService4list
FNDA:0,_RNvMNtNtCs4kTbYauoumE_12rust_backend11application9equipmentNtB2_16EquipmentService6create
FNDA:0,_RNvMNtNtCs4kTbYauoumE_12rust_backend11application9equipmentNtB2_16EquipmentService6delete
FNDA:0,_RNvMNtNtCs4kTbYauoumE_12rust_backend11application9equipmentNtB2_16EquipmentService6update
FNDA:0,_RNvMNtNtCs4kTbYauoumE_12rust_backend11application9equipmentNtB2_16EquipmentService9add_photo
FNDA:0,_RNvMNtNtCs4kTbYauoumE_12rust_backend11application9equipmentNtB2_16EquipmentService9get_by_id
FNDA:3,_RNvMNtNtCs4kTbYauoumE_12rust_backend11application9equipmentNtB2_16EquipmentService3new
FNF:21
FNH:1
DA:28,30
DA:29,30
DA:30,30
DA:31,30
DA:32,30
DA:33,30
DA:34,30
DA:35,30
DA:36,30
DA:38,0
DA:39,0
DA:40,0
DA:41,0
DA:42,0
DA:43,0
DA:44,0
DA:46,0
DA:47,0
DA:48,0
DA:49,0
DA:50,0
DA:51,0
DA:52,0
DA:53,0
DA:54,0
DA:56,0
DA:57,0
DA:58,0
DA:59,0
DA:61,0
DA:63,0
DA:64,0
DA:65,0
DA:66,0
DA:68,0
DA:69,0
DA:70,0
DA:71,0
DA:72,0
DA:73,0
DA:74,0
DA:75,0
DA:77,0
DA:78,0
DA:79,0
DA:80,0
DA:81,0
DA:82,0
DA:84,0
DA:85,0
DA:86,0
DA:87,0
DA:88,0
DA:90,0
DA:91,0
DA:92,0
DA:93,0
DA:94,0
DA:95,0
DA:97,0
DA:98,0
DA:99,0
DA:100,0
DA:101,0
DA:103,0
DA:104,0
DA:105,0
DA:106,0
DA:107,0
DA:108,0
DA:109,0
DA:110,0
DA:111,0
DA:112,0
DA:113,0
DA:114,0
DA:115,0
DA:116,0
DA:117,0
DA:118,0
DA:120,0
DA:121,0
DA:122,0
DA:124,0
DA:125,0
DA:126,0
DA:128,0
DA:129,0
DA:130,0
DA:131,0
DA:132,0
DA:133,0
DA:134,0
DA:136,0
DA:137,0
DA:138,0
DA:139,0
DA:140,0
DA:142,0
DA:144,0
DA:145,0
DA:146,0
DA:147,0
DA:148,0
DA:149,0
DA:150,0
DA:151,0
DA:152,0
DA:153,0
DA:154,0
DA:155,0
DA:156,0
DA:157,0
DA:158,0
DA:159,0
DA:160,0
DA:161,0
DA:162,0
DA:163,0
DA:164,0
DA:165,0
DA:166,0
DA:167,0
DA:168,0
DA:169,0
DA:170,0
DA:172,0
DA:173,0
DA:174,0
DA:176,0
DA:177,0
DA:178,0
DA:179,0
DA:180,0
DA:181,0
DA:183,0
DA:185,0
DA:186,0
DA:188,0
DA:189,0
DA:190,0
DA:191,0
DA:192,0
DA:193,0
DA:194,0
DA:196,0
DA:197,0
DA:198,0
DA:199,0
DA:200,0
DA:202,0
DA:204,0
DA:205,0
DA:206,0
DA:207,0
DA:208,0
DA:209,0
DA:210,0
DA:211,0
DA:212,0
DA:214,0
DA:215,0
DA:216,0
DA:217,0
DA:218,0
DA:219,0
DA:220,0
DA:221,0
DA:222,0
DA:224,0
DA:225,0
DA:226,0
DA:227,0
DA:228,0
DA:229,0
DA:230,0
DA:231,0
DA:233,0
DA:234,0
DA:235,0
DA:236,0
DA:237,0
DA:238,0
DA:239,0
DA:240,0
DA:241,0
DA:242,0
DA:243,0
DA:245,0
DA:247,0
DA:248,0
DA:249,0
DA:250,0
DA:251,0
DA:253,0
DA:254,0
DA:255,0
DA:257,0
DA:258,0
BRF:0
BRH:0
LF:212
LH:9
end_of_record
SF:/Users/mykolborghese/rust-backend/src/application/message_service.rs
FN:138,_RNCNvMNtNtCscP9pq2ikS3v_12rust_backend11application15message_serviceNtB4_14MessageService12send_message0B8_
FN:123,_RNCNCNvMNtNtCscP9pq2ikS3v_12rust_backend11application15message_serviceNtB6_14MessageService13list_messages00Ba_
FN:88,_RNCNCNvMNtNtCscP9pq2ikS3v_12rust_backend11application15message_serviceNtB6_14MessageService16get_conversation00Ba_
FN:39,_RNCNCNvMNtNtCscP9pq2ikS3v_12rust_backend11application15message_serviceNtB6_14MessageService18list_conversations00Ba_
FN:178,_RNCNvMNtNtCscP9pq2ikS3v_12rust_backend11application15message_serviceNtB4_14MessageService12mark_as_read0B8_
FN:105,_RNCNvMNtNtCscP9pq2ikS3v_12rust_backend11application15message_serviceNtB4_14MessageService13list_messages0B8_
FN:197,_RNCNvMNtNtCscP9pq2ikS3v_12rust_backend11application15message_serviceNtB4_14MessageService15participant_ids0B8_
FN:77,_RNCNvMNtNtCscP9pq2ikS3v_12rust_backend11application15message_serviceNtB4_14MessageService16get_conversation0B8_
FN:33,_RNCNvMNtNtCscP9pq2ikS3v_12rust_backend11application15message_serviceNtB4_14MessageService18list_conversations0B8_
FN:52,_RNCNvMNtNtCscP9pq2ikS3v_12rust_backend11application15message_serviceNtB4_14MessageService19create_conversation0B8_
FN:240,_RNCNvMNtNtCscP9pq2ikS3v_12rust_backend11application15message_serviceNtB4_14MessageService23can_access_conversation0B8_
FN:206,_RNCNvMNtNtCscP9pq2ikS3v_12rust_backend11application15message_serviceNtB4_14MessageService26authorized_participant_ids0B8_
FN:150,_RNCNvMNtNtCscP9pq2ikS3v_12rust_backend11application15message_serviceNtB4_14MessageService30send_message_with_participants0B8_
FN:178,_RNvMNtNtCscP9pq2ikS3v_12rust_backend11application15message_serviceNtB2_14MessageService12mark_as_read
FN:133,_RNvMNtNtCscP9pq2ikS3v_12rust_backend11application15message_serviceNtB2_14MessageService12send_message
FN:99,_RNvMNtNtCscP9pq2ikS3v_12rust_backend11application15message_serviceNtB2_14MessageService13list_messages
FN:193,_RNvMNtNtCscP9pq2ikS3v_12rust_backend11application15message_serviceNtB2_14MessageService15participant_ids
FN:73,_RNvMNtNtCscP9pq2ikS3v_12rust_backend11application15message_serviceNtB2_14MessageService16get_conversation
FN:33,_RNvMNtNtCscP9pq2ikS3v_12rust_backend11application15message_serviceNtB2_14MessageService18list_conversations
FN:48,_RNvMNtNtCscP9pq2ikS3v_12rust_backend11application15message_serviceNtB2_14MessageService19create_conversation
FN:236,_RNvMNtNtCscP9pq2ikS3v_12rust_backend11application15message_serviceNtB2_14MessageService23can_access_conversation
FN:202,_RNvMNtNtCscP9pq2ikS3v_12rust_backend11application15message_serviceNtB2_14MessageService26authorized_participant_ids
FN:145,_RNvMNtNtCscP9pq2ikS3v_12rust_backend11application15message_serviceNtB2_14MessageService30send_message_with_participants
FN:23,_RNvMNtNtCscP9pq2ikS3v_12rust_backend11application15message_serviceNtB2_14MessageService3new
FN:178,_RNCNvMNtNtCs4kTbYauoumE_12rust_backend11application15message_serviceNtB4_14MessageService12mark_as_read0B8_
FN:197,_RNCNvMNtNtCs4kTbYauoumE_12rust_backend11application15message_serviceNtB4_14MessageService15participant_ids0B8_
FN:240,_RNCNvMNtNtCs4kTbYauoumE_12rust_backend11application15message_serviceNtB4_14MessageService23can_access_conversation0B8_
FN:206,_RNCNvMNtNtCs4kTbYauoumE_12rust_backend11application15message_serviceNtB4_14MessageService26authorized_participant_ids0B8_
FN:150,_RNCNvMNtNtCs4kTbYauoumE_12rust_backend11application15message_serviceNtB4_14MessageService30send_message_with_participants0B8_
FN:178,_RNvMNtNtCs4kTbYauoumE_12rust_backend11application15message_serviceNtB2_14MessageService12mark_as_read
FN:193,_RNvMNtNtCs4kTbYauoumE_12rust_backend11application15message_serviceNtB2_14MessageService15participant_ids
FN:236,_RNvMNtNtCs4kTbYauoumE_12rust_backend11application15message_serviceNtB2_14MessageService23can_access_conversation
FN:202,_RNvMNtNtCs4kTbYauoumE_12rust_backend11application15message_serviceNtB2_14MessageService26authorized_participant_ids
FN:145,_RNvMNtNtCs4kTbYauoumE_12rust_backend11application15message_serviceNtB2_14MessageService30send_message_with_participants
FN:23,_RNvMNtNtCs4kTbYauoumE_12rust_backend11application15message_serviceNtB2_14MessageService3new
FN:123,_RNCNCNvMNtNtCs4kTbYauoumE_12rust_backend11application15message_serviceNtB6_14MessageService13list_messages00Ba_
FN:88,_RNCNCNvMNtNtCs4kTbYauoumE_12rust_backend11application15message_serviceNtB6_14MessageService16get_conversation00Ba_
FN:39,_RNCNCNvMNtNtCs4kTbYauoumE_12rust_backend11application15message_serviceNtB6_14MessageService18list_conversations00Ba_
FN:138,_RNCNvMNtNtCs4kTbYauoumE_12rust_backend11application15message_serviceNtB4_14MessageService12send_message0B8_
FN:105,_RNCNvMNtNtCs4kTbYauoumE_12rust_backend11application15message_serviceNtB4_14MessageService13list_messages0B8_
FN:77,_RNCNvMNtNtCs4kTbYauoumE_12rust_backend11application15message_serviceNtB4_14MessageService16get_conversation0B8_
FN:33,_RNCNvMNtNtCs4kTbYauoumE_12rust_backend11application15message_serviceNtB4_14MessageService18list_conversations0B8_
FN:52,_RNCNvMNtNtCs4kTbYauoumE_12rust_backend11application15message_serviceNtB4_14MessageService19create_conversation0B8_
FN:133,_RNvMNtNtCs4kTbYauoumE_12rust_backend11application15message_serviceNtB2_14MessageService12send_message
FN:99,_RNvMNtNtCs4kTbYauoumE_12rust_backend11application15message_serviceNtB2_14MessageService13list_messages
FN:73,_RNvMNtNtCs4kTbYauoumE_12rust_backend11application15message_serviceNtB2_14MessageService16get_conversation
FN:33,_RNvMNtNtCs4kTbYauoumE_12rust_backend11application15message_serviceNtB2_14MessageService18list_conversations
FN:48,_RNvMNtNtCs4kTbYauoumE_12rust_backend11application15message_serviceNtB2_14MessageService19create_conversation
FN:138,_RNCNvMNtNtCscP9pq2ikS3v_12rust_backend11application15message_serviceNtB4_14MessageService12send_message0CsgQTxU6SKUMu_8services
FNDA:0,_RNCNvMNtNtCscP9pq2ikS3v_12rust_backend11application15message_serviceNtB4_14MessageService12send_message0B8_
FNDA:0,_RNCNCNvMNtNtCscP9pq2ikS3v_12rust_backend11application15message_serviceNtB6_14MessageService13list_messages00Ba_
FNDA:0,_RNCNCNvMNtNtCscP9pq2ikS3v_12rust_backend11application15message_serviceNtB6_14MessageService16get_conversation00Ba_
FNDA:0,_RNCNCNvMNtNtCscP9pq2ikS3v_12rust_backend11application15message_serviceNtB6_14MessageService18list_conversations00Ba_
FNDA:0,_RNCNvMNtNtCscP9pq2ikS3v_12rust_backend11application15message_serviceNtB4_14MessageService12mark_as_read0B8_
FNDA:0,_RNCNvMNtNtCscP9pq2ikS3v_12rust_backend11application15message_serviceNtB4_14MessageService13list_messages0B8_
FNDA:0,_RNCNvMNtNtCscP9pq2ikS3v_12rust_backend11application15message_serviceNtB4_14MessageService15participant_ids0B8_
FNDA:0,_RNCNvMNtNtCscP9pq2ikS3v_12rust_backend11application15message_serviceNtB4_14MessageService16get_conversation0B8_
FNDA:0,_RNCNvMNtNtCscP9pq2ikS3v_12rust_backend11application15message_serviceNtB4_14MessageService18list_conversations0B8_
FNDA:0,_RNCNvMNtNtCscP9pq2ikS3v_12rust_backend11application15message_serviceNtB4_14MessageService19create_conversation0B8_
FNDA:0,_RNCNvMNtNtCscP9pq2ikS3v_12rust_backend11application15message_serviceNtB4_14MessageService23can_access_conversation0B8_
FNDA:0,_RNCNvMNtNtCscP9pq2ikS3v_12rust_backend11application15message_serviceNtB4_14MessageService26authorized_participant_ids0B8_
FNDA:0,_RNCNvMNtNtCscP9pq2ikS3v_12rust_backend11application15message_serviceNtB4_14MessageService30send_message_with_participants0B8_
FNDA:0,_RNvMNtNtCscP9pq2ikS3v_12rust_backend11application15message_serviceNtB2_14MessageService12mark_as_read
FNDA:0,_RNvMNtNtCscP9pq2ikS3v_12rust_backend11application15message_serviceNtB2_14MessageService12send_message
FNDA:0,_RNvMNtNtCscP9pq2ikS3v_12rust_backend11application15message_serviceNtB2_14MessageService13list_messages
FNDA:0,_RNvMNtNtCscP9pq2ikS3v_12rust_backend11application15message_serviceNtB2_14MessageService15participant_ids
FNDA:0,_RNvMNtNtCscP9pq2ikS3v_12rust_backend11application15message_serviceNtB2_14MessageService16get_conversation
FNDA:0,_RNvMNtNtCscP9pq2ikS3v_12rust_backend11application15message_serviceNtB2_14MessageService18list_conversations
FNDA:0,_RNvMNtNtCscP9pq2ikS3v_12rust_backend11application15message_serviceNtB2_14MessageService19create_conversation
FNDA:0,_RNvMNtNtCscP9pq2ikS3v_12rust_backend11application15message_serviceNtB2_14MessageService23can_access_conversation
FNDA:0,_RNvMNtNtCscP9pq2ikS3v_12rust_backend11application15message_serviceNtB2_14MessageService26authorized_participant_ids
FNDA:0,_RNvMNtNtCscP9pq2ikS3v_12rust_backend11application15message_serviceNtB2_14MessageService30send_message_with_participants
FNDA:27,_RNvMNtNtCscP9pq2ikS3v_12rust_backend11application15message_serviceNtB2_14MessageService3new
FNDA:0,_RNCNvMNtNtCs4kTbYauoumE_12rust_backend11application15message_serviceNtB4_14MessageService12mark_as_read0B8_
FNDA:0,_RNCNvMNtNtCs4kTbYauoumE_12rust_backend11application15message_serviceNtB4_14MessageService15participant_ids0B8_
FNDA:0,_RNCNvMNtNtCs4kTbYauoumE_12rust_backend11application15message_serviceNtB4_14MessageService23can_access_conversation0B8_
FNDA:0,_RNCNvMNtNtCs4kTbYauoumE_12rust_backend11application15message_serviceNtB4_14MessageService26authorized_participant_ids0B8_
FNDA:0,_RNCNvMNtNtCs4kTbYauoumE_12rust_backend11application15message_serviceNtB4_14MessageService30send_message_with_participants0B8_
FNDA:0,_RNvMNtNtCs4kTbYauoumE_12rust_backend11application15message_serviceNtB2_14MessageService12mark_as_read
FNDA:0,_RNvMNtNtCs4kTbYauoumE_12rust_backend11application15message_serviceNtB2_14MessageService15participant_ids
FNDA:0,_RNvMNtNtCs4kTbYauoumE_12rust_backend11application15message_serviceNtB2_14MessageService23can_access_conversation
FNDA:0,_RNvMNtNtCs4kTbYauoumE_12rust_backend11application15message_serviceNtB2_14MessageService26authorized_participant_ids
FNDA:0,_RNvMNtNtCs4kTbYauoumE_12rust_backend11application15message_serviceNtB2_14MessageService30send_message_with_participants
FNDA:3,_RNvMNtNtCs4kTbYauoumE_12rust_backend11application15message_serviceNtB2_14MessageService3new
FNDA:0,_RNCNCNvMNtNtCs4kTbYauoumE_12rust_backend11application15message_serviceNtB6_14MessageService13list_messages00Ba_
FNDA:0,_RNCNCNvMNtNtCs4kTbYauoumE_12rust_backend11application15message_serviceNtB6_14MessageService16get_conversation00Ba_
FNDA:0,_RNCNCNvMNtNtCs4kTbYauoumE_12rust_backend11application15message_serviceNtB6_14MessageService18list_conversations00Ba_
FNDA:0,_RNCNvMNtNtCs4kTbYauoumE_12rust_backend11application15message_serviceNtB4_14MessageService12send_message0B8_
FNDA:0,_RNCNvMNtNtCs4kTbYauoumE_12rust_backend11application15message_serviceNtB4_14MessageService13list_messages0B8_
FNDA:0,_RNCNvMNtNtCs4kTbYauoumE_12rust_backend11application15message_serviceNtB4_14MessageService16get_conversation0B8_
FNDA:0,_RNCNvMNtNtCs4kTbYauoumE_12rust_backend11application15message_serviceNtB4_14MessageService18list_conversations0B8_
FNDA:0,_RNCNvMNtNtCs4kTbYauoumE_12rust_backend11application15message_serviceNtB4_14MessageService19create_conversation0B8_
FNDA:0,_RNvMNtNtCs4kTbYauoumE_12rust_backend11application15message_serviceNtB2_14MessageService12send_message
FNDA:0,_RNvMNtNtCs4kTbYauoumE_12rust_backend11application15message_serviceNtB2_14MessageService13list_messages
FNDA:0,_RNvMNtNtCs4kTbYauoumE_12rust_backend11application15message_serviceNtB2_14MessageService16get_conversation
FNDA:0,_RNvMNtNtCs4kTbYauoumE_12rust_backend11application15message_serviceNtB2_14MessageService18list_conversations
FNDA:0,_RNvMNtNtCs4kTbYauoumE_12rust_backend11application15message_serviceNtB2_14MessageService19create_conversation
FNDA:0,_RNCNvMNtNtCscP9pq2ikS3v_12rust_backend11application15message_serviceNtB4_14MessageService12send_message0CsgQTxU6SKUMu_8services
FNF:24
FNH:1
DA:23,30
DA:24,30
DA:25,30
DA:26,30
DA:27,30
DA:28,30
DA:29,30
DA:30,30
DA:31,30
DA:33,0
DA:34,0
DA:36,0
DA:37,0
DA:38,0
DA:39,0
DA:40,0
DA:41,0
DA:42,0
DA:43,0
DA:44,0
DA:45,0
DA:46,0
DA:48,0
DA:49,0
DA:50,0
DA:51,0
DA:52,0
DA:53,0
DA:55,0
DA:56,0
DA:57,0
DA:59,0
DA:60,0
DA:61,0
DA:62,0
DA:64,0
DA:65,0
DA:66,0
DA:67,0
DA:68,0
DA:69,0
DA:70,0
DA:71,0
DA:73,0
DA:74,0
DA:75,0
DA:76,0
DA:77,0
DA:78,0
DA:79,0
DA:80,0
DA:81,0
DA:82,0
DA:84,0
DA:85,0
DA:86,0
DA:87,0
DA:88,0
DA:90,0
DA:91,0
DA:92,0
DA:93,0
DA:94,0
DA:95,0
DA:96,0
DA:97,0
DA:99,0
DA:100,0
DA:101,0
DA:102,0
DA:103,0
DA:104,0
DA:105,0
DA:106,0
DA:107,0
DA:108,0
DA:110,0
DA:111,0
DA:112,0
DA:113,0
DA:115,0
DA:116,0
DA:117,0
DA:118,0
DA:120,0
DA:121,0
DA:122,0
DA:123,0
DA:124,0
DA:125,0
DA:126,0
DA:127,0
DA:128,0
DA:129,0
DA:130,0
DA:131,0
DA:133,0
DA:134,0
DA:135,0
DA:136,0
DA:137,0
DA:138,0
DA:139,0
DA:140,0
DA:141,0
DA:142,0
DA:143,0
DA:145,0
DA:146,0
DA:147,0
DA:148,0
DA:149,0
DA:150,0
DA:151,0
DA:152,0
DA:153,0
DA:154,0
DA:156,0
DA:157,0
DA:158,0
DA:159,0
DA:160,0
DA:161,0
DA:162,0
DA:164,0
DA:165,0
DA:166,0
DA:167,0
DA:168,0
DA:169,0
DA:170,0
DA:171,0
DA:172,0
DA:173,0
DA:174,0
DA:175,0
DA:176,0
DA:178,0
DA:179,0
DA:180,0
DA:181,0
DA:183,0
DA:184,0
DA:185,0
DA:186,0
DA:188,0
DA:189,0
DA:190,0
DA:191,0
DA:193,0
DA:194,0
DA:195,0
DA:196,0
DA:197,0
DA:198,0
DA:199,0
DA:200,0
DA:202,0
DA:203,0
DA:204,0
DA:205,0
DA:206,0
DA:207,0
DA:208,0
DA:209,0
DA:210,0
DA:212,0
DA:213,0
DA:214,0
DA:216,0
DA:217,0
DA:218,0
DA:219,0
DA:220,0
DA:222,0
DA:223,0
DA:228,0
DA:229,0
DA:231,0
DA:232,0
DA:233,0
DA:234,0
DA:236,0
DA:237,0
DA:238,0
DA:239,0
DA:240,0
DA:241,0
DA:242,0
DA:243,0
DA:244,0
DA:246,0
DA:247,0
DA:249,0
DA:250,0
DA:251,0
DA:252,0
DA:253,0
DA:254,0
DA:255,0
DA:260,0
DA:261,0
DA:262,0
DA:263,0
BRF:0
BRH:0
LF:215
LH:9
end_of_record
SF:/Users/mykolborghese/rust-backend/src/application/user_service.rs
FN:51,_RNCNCNvMNtNtCscP9pq2ikS3v_12rust_backend11application12user_serviceNtB6_11UserService11get_profile00Ba_
FN:46,_RNCNvMNtNtCscP9pq2ikS3v_12rust_backend11application12user_serviceNtB4_11UserService11get_profile0B8_
FN:127,_RNCNCNCNvMNtNtCscP9pq2ikS3v_12rust_backend11application12user_serviceNtB8_11UserService12my_equipment000Bc_
FN:126,_RNCNCNvMNtNtCscP9pq2ikS3v_12rust_backend11application12user_serviceNtB6_11UserService12my_equipment00Ba_
FN:68,_RNCNCNvMNtNtCscP9pq2ikS3v_12rust_backend11application12user_serviceNtB6_11UserService14update_profile00Ba_
FN:37,_RNCNCNvMNtNtCscP9pq2ikS3v_12rust_backend11application12user_serviceNtB6_11UserService18get_public_profile00Ba_
FN:107,_RNCNvMNtNtCscP9pq2ikS3v_12rust_backend11application12user_serviceNtB4_11UserService12my_equipment0B8_
FN:61,_RNCNvMNtNtCscP9pq2ikS3v_12rust_backend11application12user_serviceNtB4_11UserService14update_profile0B8_
FN:32,_RNCNvMNtNtCscP9pq2ikS3v_12rust_backend11application12user_serviceNtB4_11UserService18get_public_profile0B8_
FN:46,_RNvMNtNtCscP9pq2ikS3v_12rust_backend11application12user_serviceNtB2_11UserService11get_profile
FN:102,_RNvMNtNtCscP9pq2ikS3v_12rust_backend11application12user_serviceNtB2_11UserService12my_equipment
FN:56,_RNvMNtNtCscP9pq2ikS3v_12rust_backend11application12user_serviceNtB2_11UserService14update_profile
FN:32,_RNvMNtNtCscP9pq2ikS3v_12rust_backend11application12user_serviceNtB2_11UserService18get_public_profile
FN:22,_RNvMNtNtCscP9pq2ikS3v_12rust_backend11application12user_serviceNtB2_11UserService3new
FN:160,_RNvNtNtCscP9pq2ikS3v_12rust_backend11application12user_service11map_profile
FN:22,_RNvMNtNtCs4kTbYauoumE_12rust_backend11application12user_serviceNtB2_11UserService3new
FN:127,_RNCNCNCNvMNtNtCs4kTbYauoumE_12rust_backend11application12user_serviceNtB8_11UserService12my_equipment000Bc_
FN:51,_RNCNCNvMNtNtCs4kTbYauoumE_12rust_backend11application12user_serviceNtB6_11UserService11get_profile00Ba_
FN:126,_RNCNCNvMNtNtCs4kTbYauoumE_12rust_backend11application12user_serviceNtB6_11UserService12my_equipment00Ba_
FN:68,_RNCNCNvMNtNtCs4kTbYauoumE_12rust_backend11application12user_serviceNtB6_11UserService14update_profile00Ba_
FN:37,_RNCNCNvMNtNtCs4kTbYauoumE_12rust_backend11application12user_serviceNtB6_11UserService18get_public_profile00Ba_
FN:46,_RNCNvMNtNtCs4kTbYauoumE_12rust_backend11application12user_serviceNtB4_11UserService11get_profile0B8_
FN:107,_RNCNvMNtNtCs4kTbYauoumE_12rust_backend11application12user_serviceNtB4_11UserService12my_equipment0B8_
FN:61,_RNCNvMNtNtCs4kTbYauoumE_12rust_backend11application12user_serviceNtB4_11UserService14update_profile0B8_
FN:32,_RNCNvMNtNtCs4kTbYauoumE_12rust_backend11application12user_serviceNtB4_11UserService18get_public_profile0B8_
FN:46,_RNvMNtNtCs4kTbYauoumE_12rust_backend11application12user_serviceNtB2_11UserService11get_profile
FN:102,_RNvMNtNtCs4kTbYauoumE_12rust_backend11application12user_serviceNtB2_11UserService12my_equipment
FN:56,_RNvMNtNtCs4kTbYauoumE_12rust_backend11application12user_serviceNtB2_11UserService14update_profile
FN:32,_RNvMNtNtCs4kTbYauoumE_12rust_backend11application12user_serviceNtB2_11UserService18get_public_profile
FN:160,_RNvNtNtCs4kTbYauoumE_12rust_backend11application12user_service11map_profile
FNDA:0,_RNCNCNvMNtNtCscP9pq2ikS3v_12rust_backend11application12user_serviceNtB6_11UserService11get_profile00Ba_
FNDA:0,_RNCNvMNtNtCscP9pq2ikS3v_12rust_backend11application12user_serviceNtB4_11UserService11get_profile0B8_
FNDA:0,_RNCNCNCNvMNtNtCscP9pq2ikS3v_12rust_backend11application12user_serviceNtB8_11UserService12my_equipment000Bc_
FNDA:0,_RNCNCNvMNtNtCscP9pq2ikS3v_12rust_backend11application12user_serviceNtB6_11UserService12my_equipment00Ba_
FNDA:0,_RNCNCNvMNtNtCscP9pq2ikS3v_12rust_backend11application12user_serviceNtB6_11UserService14update_profile00Ba_
FNDA:0,_RNCNCNvMNtNtCscP9pq2ikS3v_12rust_backend11application12user_serviceNtB6_11UserService18get_public_profile00Ba_
FNDA:0,_RNCNvMNtNtCscP9pq2ikS3v_12rust_backend11application12user_serviceNtB4_11UserService12my_equipment0B8_
FNDA:0,_RNCNvMNtNtCscP9pq2ikS3v_12rust_backend11application12user_serviceNtB4_11UserService14update_profile0B8_
FNDA:0,_RNCNvMNtNtCscP9pq2ikS3v_12rust_backend11application12user_serviceNtB4_11UserService18get_public_profile0B8_
FNDA:0,_RNvMNtNtCscP9pq2ikS3v_12rust_backend11application12user_serviceNtB2_11UserService11get_profile
FNDA:0,_RNvMNtNtCscP9pq2ikS3v_12rust_backend11application12user_serviceNtB2_11UserService12my_equipment
FNDA:0,_RNvMNtNtCscP9pq2ikS3v_12rust_backend11application12user_serviceNtB2_11UserService14update_profile
FNDA:0,_RNvMNtNtCscP9pq2ikS3v_12rust_backend11application12user_serviceNtB2_11UserService18get_public_profile
FNDA:27,_RNvMNtNtCscP9pq2ikS3v_12rust_backend11application12user_serviceNtB2_11UserService3new
FNDA:0,_RNvNtNtCscP9pq2ikS3v_12rust_backend11application12user_service11map_profile
FNDA:3,_RNvMNtNtCs4kTbYauoumE_12rust_backend11application12user_serviceNtB2_11UserService3new
FNDA:0,_RNCNCNCNvMNtNtCs4kTbYauoumE_12rust_backend11application12user_serviceNtB8_11UserService12my_equipment000Bc_
FNDA:0,_RNCNCNvMNtNtCs4kTbYauoumE_12rust_backend11application12user_serviceNtB6_11UserService11get_profile00Ba_
FNDA:0,_RNCNCNvMNtNtCs4kTbYauoumE_12rust_backend11application12user_serviceNtB6_11UserService12my_equipment00Ba_
FNDA:0,_RNCNCNvMNtNtCs4kTbYauoumE_12rust_backend11application12user_serviceNtB6_11UserService14update_profile00Ba_
FNDA:0,_RNCNCNvMNtNtCs4kTbYauoumE_12rust_backend11application12user_serviceNtB6_11UserService18get_public_profile00Ba_
FNDA:0,_RNCNvMNtNtCs4kTbYauoumE_12rust_backend11application12user_serviceNtB4_11UserService11get_profile0B8_
FNDA:0,_RNCNvMNtNtCs4kTbYauoumE_12rust_backend11application12user_serviceNtB4_11UserService12my_equipment0B8_
FNDA:0,_RNCNvMNtNtCs4kTbYauoumE_12rust_backend11application12user_serviceNtB4_11UserService14update_profile0B8_
FNDA:0,_RNCNvMNtNtCs4kTbYauoumE_12rust_backend11application12user_serviceNtB4_11UserService18get_public_profile0B8_
FNDA:0,_RNvMNtNtCs4kTbYauoumE_12rust_backend11application12user_serviceNtB2_11UserService11get_profile
FNDA:0,_RNvMNtNtCs4kTbYauoumE_12rust_backend11application12user_serviceNtB2_11UserService12my_equipment
FNDA:0,_RNvMNtNtCs4kTbYauoumE_12rust_backend11application12user_serviceNtB2_11UserService14update_profile
FNDA:0,_RNvMNtNtCs4kTbYauoumE_12rust_backend11application12user_serviceNtB2_11UserService18get_public_profile
FNDA:0,_RNvNtNtCs4kTbYauoumE_12rust_backend11application12user_service11map_profile
FNF:15
FNH:1
DA:22,30
DA:23,30
DA:24,30
DA:25,30
DA:26,30
DA:27,30
DA:28,30
DA:29,30
DA:30,30
DA:32,0
DA:33,0
DA:34,0
DA:35,0
DA:36,0
DA:37,0
DA:39,0
DA:40,0
DA:41,0
DA:42,0
DA:43,0
DA:44,0
DA:46,0
DA:47,0
DA:48,0
DA:49,0
DA:50,0
DA:51,0
DA:53,0
DA:54,0
DA:56,0
DA:57,0
DA:58,0
DA:59,0
DA:60,0
DA:61,0
DA:62,0
DA:64,0
DA:65,0
DA:66,0
DA:67,0
DA:68,0
DA:70,0
DA:71,0
DA:72,0
DA:73,0
DA:74,0
DA:75,0
DA:76,0
DA:77,0
DA:78,0
DA:79,0
DA:80,0
DA:81,0
DA:86,0
DA:88,0
DA:89,0
DA:90,0
DA:91,0
DA:92,0
DA:93,0
DA:94,0
DA:95,0
DA:96,0
DA:98,0
DA:99,0
DA:100,0
DA:102,0
DA:103,0
DA:104,0
DA:105,0
DA:106,0
DA:107,0
DA:108,0
DA:109,0
DA:110,0
DA:112,0
DA:113,0
DA:114,0
DA:116,0
DA:119,0
DA:120,0
DA:121,0
DA:122,0
DA:124,0
DA:125,0
DA:126,0
DA:127,0
DA:128,0
DA:129,0
DA:130,0
DA:131,0
DA:132,0
DA:133,0
DA:134,0
DA:135,0
DA:136,0
DA:137,0
DA:138,0
DA:139,0
DA:140,0
DA:141,0
DA:142,0
DA:143,0
DA:144,0
DA:145,0
DA:146,0
DA:147,0
DA:148,0
DA:150,0
DA:151,0
DA:152,0
DA:153,0
DA:154,0
DA:155,0
DA:156,0
DA:157,0
DA:160,0
DA:161,0
DA:162,0
DA:163,0
DA:164,0
DA:165,0
DA:166,0
DA:167,0
DA:168,0
DA:169,0
DA:170,0
BRF:0
BRH:0
LF:136
LH:9
end_of_record
SF:/Users/mykolborghese/rust-backend/src/config/auth0_config.rs
FN:128,_RNCNCNvMs1_NtNtCscP9pq2ikS3v_12rust_backend6config12auth0_configNtB9_11Auth0Config6issuers_00Bd_
FN:125,_RNCNvMs1_NtNtCscP9pq2ikS3v_12rust_backend6config12auth0_configNtB7_11Auth0Config6issuer0Bb_
FN:126,_RNCNvMs1_NtNtCscP9pq2ikS3v_12rust_backend6config12auth0_configNtB7_11Auth0Config6issuers_0Bb_
FN:88,_RNCNvMs1_NtNtCscP9pq2ikS3v_12rust_backend6config12auth0_configNtB7_11Auth0Config9non_empty0Bb_
FN:98,_RNvMs1_NtNtCscP9pq2ikS3v_12rust_backend6config12auth0_configNtB5_11Auth0Config10is_enabled
FN:123,_RNvMs1_NtNtCscP9pq2ikS3v_12rust_backend6config12auth0_configNtB5_11Auth0Config6issuer
FN:103,_RNvMs1_NtNtCscP9pq2ikS3v_12rust_backend6config12auth0_configNtB5_11Auth0Config8validate
FN:87,_RNvMs1_NtNtCscP9pq2ikS3v_12rust_backend6config12auth0_configNtB5_11Auth0Config9non_empty
FN:26,_RNvXNtNtCscP9pq2ikS3v_12rust_backend6config12auth0_configNtB2_10AuthConfigNtNtCsezyhsC6CBT9_4core3fmt5Debug3fmt
FN:73,_RNvXs0_NtNtCscP9pq2ikS3v_12rust_backend6config12auth0_configNtB5_11Auth0ConfigNtNtCsezyhsC6CBT9_4core7default7Default7default
FN:56,_RNvXs_NtNtCscP9pq2ikS3v_12rust_backend6config12auth0_configNtB4_11Auth0ConfigNtNtCsezyhsC6CBT9_4core3fmt5Debug3fmt
FN:128,_RNCNCNvMs1_NtNtCs4kTbYauoumE_12rust_backend6config12auth0_configNtB9_11Auth0Config6issuers_00Bd_
FN:125,_RNCNvMs1_NtNtCs4kTbYauoumE_12rust_backend6config12auth0_configNtB7_11Auth0Config6issuer0Bb_
FN:126,_RNCNvMs1_NtNtCs4kTbYauoumE_12rust_backend6config12auth0_configNtB7_11Auth0Config6issuers_0Bb_
FN:88,_RNCNvMs1_NtNtCs4kTbYauoumE_12rust_backend6config12auth0_configNtB7_11Auth0Config9non_empty0Bb_
FN:123,_RNvMs1_NtNtCs4kTbYauoumE_12rust_backend6config12auth0_configNtB5_11Auth0Config6issuer
FN:87,_RNvMs1_NtNtCs4kTbYauoumE_12rust_backend6config12auth0_configNtB5_11Auth0Config9non_empty
FN:73,_RNvXs0_NtNtCs4kTbYauoumE_12rust_backend6config12auth0_configNtB5_11Auth0ConfigNtNtCsezyhsC6CBT9_4core7default7Default7default
FN:98,_RNvMs1_NtNtCs4kTbYauoumE_12rust_backend6config12auth0_configNtB5_11Auth0Config10is_enabled
FN:103,_RNvMs1_NtNtCs4kTbYauoumE_12rust_backend6config12auth0_configNtB5_11Auth0Config8validate
FN:26,_RNvXNtNtCs4kTbYauoumE_12rust_backend6config12auth0_configNtB2_10AuthConfigNtNtCsezyhsC6CBT9_4core3fmt5Debug3fmt
FN:56,_RNvXs_NtNtCs4kTbYauoumE_12rust_backend6config12auth0_configNtB4_11Auth0ConfigNtNtCsezyhsC6CBT9_4core3fmt5Debug3fmt
FNDA:0,_RNCNCNvMs1_NtNtCscP9pq2ikS3v_12rust_backend6config12auth0_configNtB9_11Auth0Config6issuers_00Bd_
FNDA:0,_RNCNvMs1_NtNtCscP9pq2ikS3v_12rust_backend6config12auth0_configNtB7_11Auth0Config6issuer0Bb_
FNDA:0,_RNCNvMs1_NtNtCscP9pq2ikS3v_12rust_backend6config12auth0_configNtB7_11Auth0Config6issuers_0Bb_
FNDA:4,_RNCNvMs1_NtNtCscP9pq2ikS3v_12rust_backend6config12auth0_configNtB7_11Auth0Config9non_empty0Bb_
FNDA:6,_RNvMs1_NtNtCscP9pq2ikS3v_12rust_backend6config12auth0_configNtB5_11Auth0Config10is_enabled
FNDA:0,_RNvMs1_NtNtCscP9pq2ikS3v_12rust_backend6config12auth0_configNtB5_11Auth0Config6issuer
FNDA:0,_RNvMs1_NtNtCscP9pq2ikS3v_12rust_backend6config12auth0_configNtB5_11Auth0Config8validate
FNDA:10,_RNvMs1_NtNtCscP9pq2ikS3v_12rust_backend6config12auth0_configNtB5_11Auth0Config9non_empty
FNDA:0,_RNvXNtNtCscP9pq2ikS3v_12rust_backend6config12auth0_configNtB2_10AuthConfigNtNtCsezyhsC6CBT9_4core3fmt5Debug3fmt
FNDA:6,_RNvXs0_NtNtCscP9pq2ikS3v_12rust_backend6config12auth0_configNtB5_11Auth0ConfigNtNtCsezyhsC6CBT9_4core7default7Default7default
FNDA:0,_RNvXs_NtNtCscP9pq2ikS3v_12rust_backend6config12auth0_configNtB4_11Auth0ConfigNtNtCsezyhsC6CBT9_4core3fmt5Debug3fmt
FNDA:1,_RNCNCNvMs1_NtNtCs4kTbYauoumE_12rust_backend6config12auth0_configNtB9_11Auth0Config6issuers_00Bd_
FNDA:7,_RNCNvMs1_NtNtCs4kTbYauoumE_12rust_backend6config12auth0_configNtB7_11Auth0Config6issuer0Bb_
FNDA:2,_RNCNvMs1_NtNtCs4kTbYauoumE_12rust_backend6config12auth0_configNtB7_11Auth0Config6issuers_0Bb_
FNDA:8,_RNCNvMs1_NtNtCs4kTbYauoumE_12rust_backend6config12auth0_configNtB7_11Auth0Config9non_empty0Bb_
FNDA:9,_RNvMs1_NtNtCs4kTbYauoumE_12rust_backend6config12auth0_configNtB5_11Auth0Config6issuer
FNDA:11,_RNvMs1_NtNtCs4kTbYauoumE_12rust_backend6config12auth0_configNtB5_11Auth0Config9non_empty
FNDA:8,_RNvXs0_NtNtCs4kTbYauoumE_12rust_backend6config12auth0_configNtB5_11Auth0ConfigNtNtCsezyhsC6CBT9_4core7default7Default7default
FNDA:0,_RNvMs1_NtNtCs4kTbYauoumE_12rust_backend6config12auth0_configNtB5_11Auth0Config10is_enabled
FNDA:0,_RNvMs1_NtNtCs4kTbYauoumE_12rust_backend6config12auth0_configNtB5_11Auth0Config8validate
FNDA:0,_RNvXNtNtCs4kTbYauoumE_12rust_backend6config12auth0_configNtB2_10AuthConfigNtNtCsezyhsC6CBT9_4core3fmt5Debug3fmt
FNDA:0,_RNvXs_NtNtCs4kTbYauoumE_12rust_backend6config12auth0_configNtB4_11Auth0ConfigNtNtCsezyhsC6CBT9_4core3fmt5Debug3fmt
FNF:11
FNH:8
DA:26,0
DA:27,0
DA:28,0
DA:29,0
DA:30,0
DA:31,0
DA:32,0
DA:33,0
DA:34,0
DA:35,0
DA:36,0
DA:37,0
DA:38,0
DA:39,0
DA:40,0
DA:56,0
DA:57,0
DA:58,0
DA:59,0
DA:60,0
DA:61,0
DA:62,0
DA:63,0
DA:64,0
DA:65,0
DA:67,0
DA:68,0
DA:69,0
DA:73,14
DA:74,14
DA:75,14
DA:76,14
DA:77,14
DA:78,14
DA:79,14
DA:80,14
DA:81,14
DA:82,14
DA:83,14
DA:87,21
DA:88,21
DA:89,12
DA:90,12
DA:91,0
DA:93,12
DA:95,12
DA:96,21
DA:98,6
DA:99,6
DA:100,4
DA:101,6
DA:103,0
DA:104,0
DA:105,0
DA:106,0
DA:108,0
DA:109,0
DA:110,0
DA:111,0
DA:112,0
DA:114,0
DA:115,0
DA:116,0
DA:117,0
DA:118,0
DA:120,0
DA:121,0
DA:123,9
DA:124,9
DA:125,9
DA:126,9
DA:127,2
DA:128,2
DA:129,2
DA:130,9
BRF:0
BRH:0
LF:79
LH:34
end_of_record
SF:/Users/mykolborghese/rust-backend/src/config/database_config.rs
FN:19,_RNvXNtNtCscP9pq2ikS3v_12rust_backend6config15database_configNtB2_14DatabaseConfigNtNtCsezyhsC6CBT9_4core3fmt5Debug3fmt
FN:19,_RNvXNtNtCs4kTbYauoumE_12rust_backend6config15database_configNtB2_14DatabaseConfigNtNtCsezyhsC6CBT9_4core3fmt5Debug3fmt
FNDA:0,_RNvXNtNtCscP9pq2ikS3v_12rust_backend6config15database_configNtB2_14DatabaseConfigNtNtCsezyhsC6CBT9_4core3fmt5Debug3fmt
FNDA:0,_RNvXNtNtCs4kTbYauoumE_12rust_backend6config15database_configNtB2_14DatabaseConfigNtNtCsezyhsC6CBT9_4core3fmt5Debug3fmt
FNF:1
FNH:0
DA:19,0
DA:20,0
DA:21,0
DA:22,0
DA:23,0
DA:24,0
DA:25,0
DA:26,0
DA:27,0
DA:28,0
DA:29,0
BRF:0
BRH:0
LF:11
LH:0
end_of_record
SF:/Users/mykolborghese/rust-backend/src/config/defaults.rs
FN:82,_RNCNvNtNtCscP9pq2ikS3v_12rust_backend6config8defaults25normalize_optional_string0B7_
FN:1,_RNvNtNtCscP9pq2ikS3v_12rust_backend6config8defaults12default_host
FN:5,_RNvNtNtCscP9pq2ikS3v_12rust_backend6config8defaults12default_port
FN:29,_RNvNtNtCscP9pq2ikS3v_12rust_backend6config8defaults15default_jwt_kid
FN:9,_RNvNtNtCscP9pq2ikS3v_12rust_backend6config8defaults19default_environment
FN:73,_RNvNtNtCscP9pq2ikS3v_12rust_backend6config8defaults21default_logging_level
FN:37,_RNvNtNtCscP9pq2ikS3v_12rust_backend6config8defaults24default_auth0_connection
FN:81,_RNvNtNtCscP9pq2ikS3v_12rust_backend6config8defaults25normalize_optional_string
FN:49,_RNvNtNtCscP9pq2ikS3v_12rust_backend6config8defaults26default_login_max_failures
FN:33,_RNvNtNtCscP9pq2ikS3v_12rust_backend6config8defaults27default_jwks_cache_ttl_secs
FN:77,_RNvNtNtCscP9pq2ikS3v_12rust_backend6config8defaults27default_logging_json_format
FN:41,_RNvNtNtCscP9pq2ikS3v_12rust_backend6config8defaults28default_cors_allowed_origins
FN:57,_RNvNtNtCscP9pq2ikS3v_12rust_backend6config8defaults29default_login_backoff_base_ms
FN:53,_RNvNtNtCscP9pq2ikS3v_12rust_backend6config8defaults29default_login_lockout_seconds
FN:25,_RNvNtNtCscP9pq2ikS3v_12rust_backend6config8defaults30default_db_test_before_acquire
FN:17,_RNvNtNtCscP9pq2ikS3v_12rust_backend6config8defaults31default_db_idle_timeout_seconds
FN:21,_RNvNtNtCscP9pq2ikS3v_12rust_backend6config8defaults31default_db_max_lifetime_seconds
FN:13,_RNvNtNtCscP9pq2ikS3v_12rust_backend6config8defaults34default_db_acquire_timeout_seconds
FN:45,_RNvNtNtCscP9pq2ikS3v_12rust_backend6config8defaults34default_metrics_allow_private_only
FN:65,_RNvNtNtCscP9pq2ikS3v_12rust_backend6config8defaults36default_global_rate_limit_burst_size
FN:61,_RNvNtNtCscP9pq2ikS3v_12rust_backend6config8defaults36default_global_rate_limit_per_minute
FN:69,_RNvNtNtCscP9pq2ikS3v_12rust_backend6config8defaults50default_global_rate_limit_authenticated_per_minute
FN:37,_RNvNtNtCs4kTbYauoumE_12rust_backend6config8defaults24default_auth0_connection
FN:33,_RNvNtNtCs4kTbYauoumE_12rust_backend6config8defaults27default_jwks_cache_ttl_secs
FN:82,_RNCNvNtNtCs4kTbYauoumE_12rust_backend6config8defaults25normalize_optional_string0B7_
FN:1,_RNvNtNtCs4kTbYauoumE_12rust_backend6config8defaults12default_host
FN:5,_RNvNtNtCs4kTbYauoumE_12rust_backend6config8defaults12default_port
FN:29,_RNvNtNtCs4kTbYauoumE_12rust_backend6config8defaults15default_jwt_kid
FN:9,_RNvNtNtCs4kTbYauoumE_12rust_backend6config8defaults19default_environment
FN:73,_RNvNtNtCs4kTbYauoumE_12rust_backend6config8defaults21default_logging_level
FN:81,_RNvNtNtCs4kTbYauoumE_12rust_backend6config8defaults25normalize_optional_string
FN:49,_RNvNtNtCs4kTbYauoumE_12rust_backend6config8defaults26default_login_max_failures
FN:77,_RNvNtNtCs4kTbYauoumE_12rust_backend6config8defaults27default_logging_json_format
FN:41,_RNvNtNtCs4kTbYauoumE_12rust_backend6config8defaults28default_cors_allowed_origins
FN:57,_RNvNtNtCs4kTbYauoumE_12rust_backend6config8defaults29default_login_backoff_base_ms
FN:53,_RNvNtNtCs4kTbYauoumE_12rust_backend6config8defaults29default_login_lockout_seconds
FN:25,_RNvNtNtCs4kTbYauoumE_12rust_backend6config8defaults30default_db_test_before_acquire
FN:17,_RNvNtNtCs4kTbYauoumE_12rust_backend6config8defaults31default_db_idle_timeout_seconds
FN:21,_RNvNtNtCs4kTbYauoumE_12rust_backend6config8defaults31default_db_max_lifetime_seconds
FN:13,_RNvNtNtCs4kTbYauoumE_12rust_backend6config8defaults34default_db_acquire_timeout_seconds
FN:45,_RNvNtNtCs4kTbYauoumE_12rust_backend6config8defaults34default_metrics_allow_private_only
FN:65,_RNvNtNtCs4kTbYauoumE_12rust_backend6config8defaults36default_global_rate_limit_burst_size
FN:61,_RNvNtNtCs4kTbYauoumE_12rust_backend6config8defaults36default_global_rate_limit_per_minute
FN:69,_RNvNtNtCs4kTbYauoumE_12rust_backend6config8defaults50default_global_rate_limit_authenticated_per_minute
FNDA:0,_RNCNvNtNtCscP9pq2ikS3v_12rust_backend6config8defaults25normalize_optional_string0B7_
FNDA:0,_RNvNtNtCscP9pq2ikS3v_12rust_backend6config8defaults12default_host
FNDA:0,_RNvNtNtCscP9pq2ikS3v_12rust_backend6config8defaults12default_port
FNDA:0,_RNvNtNtCscP9pq2ikS3v_12rust_backend6config8defaults15default_jwt_kid
FNDA:0,_RNvNtNtCscP9pq2ikS3v_12rust_backend6config8defaults19default_environment
FNDA:0,_RNvNtNtCscP9pq2ikS3v_12rust_backend6config8defaults21default_logging_level
FNDA:6,_RNvNtNtCscP9pq2ikS3v_12rust_backend6config8defaults24default_auth0_connection
FNDA:0,_RNvNtNtCscP9pq2ikS3v_12rust_backend6config8defaults25normalize_optional_string
FNDA:0,_RNvNtNtCscP9pq2ikS3v_12rust_backend6config8defaults26default_login_max_failures
FNDA:6,_RNvNtNtCscP9pq2ikS3v_12rust_backend6config8defaults27default_jwks_cache_ttl_secs
FNDA:0,_RNvNtNtCscP9pq2ikS3v_12rust_backend6config8defaults27default_logging_json_format
FNDA:0,_RNvNtNtCscP9pq2ikS3v_12rust_backend6config8defaults28default_cors_allowed_origins
FNDA:0,_RNvNtNtCscP9pq2ikS3v_12rust_backend6config8defaults29default_login_backoff_base_ms
FNDA:0,_RNvNtNtCscP9pq2ikS3v_12rust_backend6config8defaults29default_login_lockout_seconds
FNDA:0,_RNvNtNtCscP9pq2ikS3v_12rust_backend6config8defaults30default_db_test_before_acquire
FNDA:0,_RNvNtNtCscP9pq2ikS3v_12rust_backend6config8defaults31default_db_idle_timeout_seconds
FNDA:0,_RNvNtNtCscP9pq2ikS3v_12rust_backend6config8defaults31default_db_max_lifetime_seconds
FNDA:0,_RNvNtNtCscP9pq2ikS3v_12rust_backend6config8defaults34default_db_acquire_timeout_seconds
FNDA:0,_RNvNtNtCscP9pq2ikS3v_12rust_backend6config8defaults34default_metrics_allow_private_only
FNDA:0,_RNvNtNtCscP9pq2ikS3v_12rust_backend6config8defaults36default_global_rate_limit_burst_size
FNDA:0,_RNvNtNtCscP9pq2ikS3v_12rust_backend6config8defaults36default_global_rate_limit_per_minute
FNDA:0,_RNvNtNtCscP9pq2ikS3v_12rust_backend6config8defaults50default_global_rate_limit_authenticated_per_minute
FNDA:8,_RNvNtNtCs4kTbYauoumE_12rust_backend6config8defaults24default_auth0_connection
FNDA:8,_RNvNtNtCs4kTbYauoumE_12rust_backend6config8defaults27default_jwks_cache_ttl_secs
FNDA:0,_RNCNvNtNtCs4kTbYauoumE_12rust_backend6config8defaults25normalize_optional_string0B7_
FNDA:0,_RNvNtNtCs4kTbYauoumE_12rust_backend6config8defaults12default_host
FNDA:0,_RNvNtNtCs4kTbYauoumE_12rust_backend6config8defaults12default_port
FNDA:0,_RNvNtNtCs4kTbYauoumE_12rust_backend6config8defaults15default_jwt_kid
FNDA:0,_RNvNtNtCs4kTbYauoumE_12rust_backend6config8defaults19default_environment
FNDA:0,_RNvNtNtCs4kTbYauoumE_12rust_backend6config8defaults21default_logging_level
FNDA:0,_RNvNtNtCs4kTbYauoumE_12rust_backend6config8defaults25normalize_optional_string
FNDA:0,_RNvNtNtCs4kTbYauoumE_12rust_backend6config8defaults26default_login_max_failures
FNDA:0,_RNvNtNtCs4kTbYauoumE_12rust_backend6config8defaults27default_logging_json_format
FNDA:0,_RNvNtNtCs4kTbYauoumE_12rust_backend6config8defaults28default_cors_allowed_origins
FNDA:0,_RNvNtNtCs4kTbYauoumE_12rust_backend6config8defaults29default_login_backoff_base_ms
FNDA:0,_RNvNtNtCs4kTbYauoumE_12rust_backend6config8defaults29default_login_lockout_seconds
FNDA:0,_RNvNtNtCs4kTbYauoumE_12rust_backend6config8defaults30default_db_test_before_acquire
FNDA:0,_RNvNtNtCs4kTbYauoumE_12rust_backend6config8defaults31default_db_idle_timeout_seconds
FNDA:0,_RNvNtNtCs4kTbYauoumE_12rust_backend6config8defaults31default_db_max_lifetime_seconds
FNDA:0,_RNvNtNtCs4kTbYauoumE_12rust_backend6config8defaults34default_db_acquire_timeout_seconds
FNDA:0,_RNvNtNtCs4kTbYauoumE_12rust_backend6config8defaults34default_metrics_allow_private_only
FNDA:0,_RNvNtNtCs4kTbYauoumE_12rust_backend6config8defaults36default_global_rate_limit_burst_size
FNDA:0,_RNvNtNtCs4kTbYauoumE_12rust_backend6config8defaults36default_global_rate_limit_per_minute
FNDA:0,_RNvNtNtCs4kTbYauoumE_12rust_backend6config8defaults50default_global_rate_limit_authenticated_per_minute
FNF:22
FNH:2
DA:1,0
DA:2,0
DA:3,0
DA:5,0
DA:6,0
DA:7,0
DA:9,0
DA:10,0
DA:11,0
DA:13,0
DA:14,0
DA:15,0
DA:17,0
DA:18,0
DA:19,0
DA:21,0
DA:22,0
DA:23,0
DA:25,0
DA:26,0
DA:27,0
DA:29,0
DA:30,0
DA:31,0
DA:33,14
DA:34,14
DA:35,14
DA:37,14
DA:38,14
DA:39,14
DA:41,0
DA:42,0
DA:43,0
DA:45,0
DA:46,0
DA:47,0
DA:49,0
DA:50,0
DA:51,0
DA:53,0
DA:54,0
DA:55,0
DA:57,0
DA:58,0
DA:59,0
DA:61,0
DA:62,0
DA:63,0
DA:65,0
DA:66,0
DA:67,0
DA:69,0
DA:70,0
DA:71,0
DA:73,0
DA:74,0
DA:75,0
DA:77,0
DA:78,0
DA:79,0
DA:81,0
DA:82,0
DA:83,0
DA:84,0
DA:85,0
DA:87,0
DA:89,0
DA:90,0
BRF:0
BRH:0
LF:69
LH:6
end_of_record
SF:/Users/mykolborghese/rust-backend/src/config/mod.rs
FN:47,_RNvMNtCscP9pq2ikS3v_12rust_backend6configNtB2_12SentryConfig10is_enabled
FN:56,_RNvMs_NtCscP9pq2ikS3v_12rust_backend6configNtB4_9AppConfig8from_env
FN:114,_RNvMs_NtCscP9pq2ikS3v_12rust_backend6configNtB4_9AppConfig8validate
FN:50,_RNCNvMNtCscP9pq2ikS3v_12rust_backend6configNtB4_12SentryConfig10is_enabled0B6_
FN:81,_RNCNvMs_NtCscP9pq2ikS3v_12rust_backend6configNtB6_9AppConfig8from_env0B8_
FN:50,_RNCNvMNtCs4kTbYauoumE_12rust_backend6configNtB4_12SentryConfig10is_enabled0B6_
FN:81,_RNCNvMs_NtCs4kTbYauoumE_12rust_backend6configNtB6_9AppConfig8from_env0B8_
FN:47,_RNvMNtCs4kTbYauoumE_12rust_backend6configNtB2_12SentryConfig10is_enabled
FN:56,_RNvMs_NtCs4kTbYauoumE_12rust_backend6configNtB4_9AppConfig8from_env
FN:114,_RNvMs_NtCs4kTbYauoumE_12rust_backend6configNtB4_9AppConfig8validate
FNDA:0,_RNvMNtCscP9pq2ikS3v_12rust_backend6configNtB2_12SentryConfig10is_enabled
FNDA:0,_RNvMs_NtCscP9pq2ikS3v_12rust_backend6configNtB4_9AppConfig8from_env
FNDA:0,_RNvMs_NtCscP9pq2ikS3v_12rust_backend6configNtB4_9AppConfig8validate
FNDA:0,_RNCNvMNtCscP9pq2ikS3v_12rust_backend6configNtB4_12SentryConfig10is_enabled0B6_
FNDA:0,_RNCNvMs_NtCscP9pq2ikS3v_12rust_backend6configNtB6_9AppConfig8from_env0B8_
FNDA:0,_RNCNvMNtCs4kTbYauoumE_12rust_backend6configNtB4_12SentryConfig10is_enabled0B6_
FNDA:0,_RNCNvMs_NtCs4kTbYauoumE_12rust_backend6configNtB6_9AppConfig8from_env0B8_
FNDA:0,_RNvMNtCs4kTbYauoumE_12rust_backend6configNtB2_12SentryConfig10is_enabled
FNDA:0,_RNvMs_NtCs4kTbYauoumE_12rust_backend6configNtB4_9AppConfig8from_env
FNDA:0,_RNvMs_NtCs4kTbYauoumE_12rust_backend6configNtB4_9AppConfig8validate
FNF:5
FNH:0
DA:47,0
DA:48,0
DA:49,0
DA:50,0
DA:51,0
DA:52,0
DA:56,0
DA:57,0
DA:58,0
DA:59,0
DA:60,0
DA:61,0
DA:62,0
DA:63,0
DA:64,0
DA:65,0
DA:66,0
DA:67,0
DA:68,0
DA:69,0
DA:70,0
DA:71,0
DA:72,0
DA:73,0
DA:74,0
DA:75,0
DA:76,0
DA:77,0
DA:78,0
DA:79,0
DA:80,0
DA:81,0
DA:82,0
DA:83,0
DA:84,0
DA:85,0
DA:86,0
DA:87,0
DA:88,0
DA:89,0
DA:90,0
DA:91,0
DA:92,0
DA:93,0
DA:95,0
DA:96,0
DA:98,0
DA:99,0
DA:100,0
DA:101,0
DA:102,0
DA:103,0
DA:104,0
DA:105,0
DA:106,0
DA:107,0
DA:108,0
DA:109,0
DA:111,0
DA:112,0
DA:114,0
DA:116,0
DA:117,0
DA:118,0
DA:119,0
DA:120,0
DA:121,0
DA:124,0
DA:125,0
DA:126,0
DA:127,0
DA:128,0
DA:130,0
DA:131,0
DA:132,0
BRF:0
BRH:0
LF:77
LH:0
end_of_record
SF:/Users/mykolborghese/rust-backend/src/config/security_config.rs
FN:28,_RNvMNtNtCscP9pq2ikS3v_12rust_backend6config15security_configNtB2_14SecurityConfig8validate
FN:49,_RNvXs_NtNtCscP9pq2ikS3v_12rust_backend6config15security_configNtB4_14SecurityConfigNtNtCsezyhsC6CBT9_4core3fmt5Debug3fmt
FN:28,_RNvMNtNtCs4kTbYauoumE_12rust_backend6config15security_configNtB2_14SecurityConfig8validate
FN:49,_RNvXs_NtNtCs4kTbYauoumE_12rust_backend6config15security_configNtB4_14SecurityConfigNtNtCsezyhsC6CBT9_4core3fmt5Debug3fmt
FNDA:0,_RNvMNtNtCscP9pq2ikS3v_12rust_backend6config15security_configNtB2_14SecurityConfig8validate
FNDA:0,_RNvXs_NtNtCscP9pq2ikS3v_12rust_backend6config15security_configNtB4_14SecurityConfigNtNtCsezyhsC6CBT9_4core3fmt5Debug3fmt
FNDA:0,_RNvMNtNtCs4kTbYauoumE_12rust_backend6config15security_configNtB2_14SecurityConfig8validate
FNDA:0,_RNvXs_NtNtCs4kTbYauoumE_12rust_backend6config15security_configNtB4_14SecurityConfigNtNtCsezyhsC6CBT9_4core3fmt5Debug3fmt
FNF:2
FNH:0
DA:28,0
DA:29,0
DA:30,0
DA:31,0
DA:32,0
DA:33,0
DA:34,0
DA:35,0
DA:36,0
DA:37,0
DA:38,0
DA:39,0
DA:40,0
DA:41,0
DA:42,0
DA:43,0
DA:44,0
DA:45,0
DA:49,0
DA:50,0
DA:51,0
DA:52,0
DA:53,0
DA:54,0
DA:55,0
DA:56,0
DA:57,0
DA:58,0
DA:60,0
DA:61,0
DA:62,0
DA:63,0
DA:64,0
DA:65,0
DA:67,0
DA:68,0
DA:69,0
DA:71,0
DA:72,0
DA:73,0
DA:75,0
DA:76,0
BRF:0
BRH:0
LF:42
LH:0
end_of_record
SF:/Users/mykolborghese/rust-backend/src/domain/equipment.rs
FN:74,_RNCNvMs1_NtNtCscP9pq2ikS3v_12rust_backend6domain9equipmentNtB7_9Equipment17coordinates_tuple0Bb_
FN:20,_RNvMNtNtCscP9pq2ikS3v_12rust_backend6domain9equipmentNtB2_9Condition6as_str
FN:86,_RNvMs1_NtNtCscP9pq2ikS3v_12rust_backend6domain9equipmentNtB5_9Equipment15set_coordinates
FN:73,_RNvMs1_NtNtCscP9pq2ikS3v_12rust_backend6domain9equipmentNtB5_9Equipment17coordinates_tuple
FN:53,_RNvXs0_NtNtCscP9pq2ikS3v_12rust_backend6domain9equipmentNtB5_9EquipmentNtNtCsezyhsC6CBT9_4core7default7Default7default
FN:31,_RNvXs_NtNtCscP9pq2ikS3v_12rust_backend6domain9equipmentNtB4_9ConditionNtNtCsezyhsC6CBT9_4core3fmt7Display3fmt
FN:116,_RNvNtNtNtCs4kTbYauoumE_12rust_backend6domain9equipment5tests21create_test_equipment
FN:134,_RNvNtNtNtCs4kTbYauoumE_12rust_backend6domain9equipment5testss_33condition_serializes_to_lowercase
FN:221,_RNvNtNtNtCs4kTbYauoumE_12rust_backend6domain9equipment5testss_35set_coordinates_overwrites_existing
FN:231,_RNvNtNtNtCs4kTbYauoumE_12rust_backend6domain9equipment5testss_36set_coordinates_rejects_out_of_range
FN:145,_RNvNtNtNtCs4kTbYauoumE_12rust_backend6domain9equipment5testss_37condition_deserializes_from_lowercase
FN:171,_RNvNtNtNtCs4kTbYauoumE_12rust_backend6domain9equipment5testss_37coordinates_tuple_parses_valid_string
FN:209,_RNvNtNtNtCs4kTbYauoumE_12rust_backend6domain9equipment5testss_37set_coordinates_sets_string_correctly
FN:182,_RNvNtNtNtCs4kTbYauoumE_12rust_backend6domain9equipment5testss_45coordinates_tuple_parses_without_extra_spaces
FN:193,_RNvNtNtNtCs4kTbYauoumE_12rust_backend6domain9equipment5testss_49coordinates_tuple_returns_none_for_invalid_format
FN:165,_RNvNtNtNtCs4kTbYauoumE_12rust_backend6domain9equipment5testss_55coordinates_tuple_returns_none_when_coordinates_is_none
FN:74,_RNCNvMs1_NtNtCs4kTbYauoumE_12rust_backend6domain9equipmentNtB7_9Equipment17coordinates_tuple0Bb_
FN:20,_RNvMNtNtCs4kTbYauoumE_12rust_backend6domain9equipmentNtB2_9Condition6as_str
FN:53,_RNvXs0_NtNtCs4kTbYauoumE_12rust_backend6domain9equipmentNtB5_9EquipmentNtNtCsezyhsC6CBT9_4core7default7Default7default
FN:31,_RNvXs_NtNtCs4kTbYauoumE_12rust_backend6domain9equipmentNtB4_9ConditionNtNtCsezyhsC6CBT9_4core3fmt7Display3fmt
FN:86,_RNvMs1_NtNtCs4kTbYauoumE_12rust_backend6domain9equipmentNtB5_9Equipment15set_coordinates
FN:73,_RNvMs1_NtNtCs4kTbYauoumE_12rust_backend6domain9equipmentNtB5_9Equipment17coordinates_tuple
FNDA:0,_RNCNvMs1_NtNtCscP9pq2ikS3v_12rust_backend6domain9equipmentNtB7_9Equipment17coordinates_tuple0Bb_
FNDA:0,_RNvMNtNtCscP9pq2ikS3v_12rust_backend6domain9equipmentNtB2_9Condition6as_str
FNDA:0,_RNvMs1_NtNtCscP9pq2ikS3v_12rust_backend6domain9equipmentNtB5_9Equipment15set_coordinates
FNDA:0,_RNvMs1_NtNtCscP9pq2ikS3v_12rust_backend6domain9equipmentNtB5_9Equipment17coordinates_tuple
FNDA:0,_RNvXs0_NtNtCscP9pq2ikS3v_12rust_backend6domain9equipmentNtB5_9EquipmentNtNtCsezyhsC6CBT9_4core7default7Default7default
FNDA:0,_RNvXs_NtNtCscP9pq2ikS3v_12rust_backend6domain9equipmentNtB4_9ConditionNtNtCsezyhsC6CBT9_4core3fmt7Display3fmt
FNDA:7,_RNvNtNtNtCs4kTbYauoumE_12rust_backend6domain9equipment5tests21create_test_equipment
FNDA:1,_RNvNtNtNtCs4kTbYauoumE_12rust_backend6domain9equipment5testss_33condition_serializes_to_lowercase
FNDA:1,_RNvNtNtNtCs4kTbYauoumE_12rust_backend6domain9equipment5testss_35set_coordinates_overwrites_existing
FNDA:1,_RNvNtNtNtCs4kTbYauoumE_12rust_backend6domain9equipment5testss_36set_coordinates_rejects_out_of_range
FNDA:1,_RNvNtNtNtCs4kTbYauoumE_12rust_backend6domain9equipment5testss_37condition_deserializes_from_lowercase
FNDA:1,_RNvNtNtNtCs4kTbYauoumE_12rust_backend6domain9equipment5testss_37coordinates_tuple_parses_valid_string
FNDA:1,_RNvNtNtNtCs4kTbYauoumE_12rust_backend6domain9equipment5testss_37set_coordinates_sets_string_correctly
FNDA:1,_RNvNtNtNtCs4kTbYauoumE_12rust_backend6domain9equipment5testss_45coordinates_tuple_parses_without_extra_spaces
FNDA:1,_RNvNtNtNtCs4kTbYauoumE_12rust_backend6domain9equipment5testss_49coordinates_tuple_returns_none_for_invalid_format
FNDA:1,_RNvNtNtNtCs4kTbYauoumE_12rust_backend6domain9equipment5testss_55coordinates_tuple_returns_none_when_coordinates_is_none
FNDA:8,_RNCNvMs1_NtNtCs4kTbYauoumE_12rust_backend6domain9equipmentNtB7_9Equipment17coordinates_tuple0Bb_
FNDA:0,_RNvMNtNtCs4kTbYauoumE_12rust_backend6domain9equipmentNtB2_9Condition6as_str
FNDA:0,_RNvXs0_NtNtCs4kTbYauoumE_12rust_backend6domain9equipmentNtB5_9EquipmentNtNtCsezyhsC6CBT9_4core7default7Default7default
FNDA:0,_RNvXs_NtNtCs4kTbYauoumE_12rust_backend6domain9equipmentNtB4_9ConditionNtNtCsezyhsC6CBT9_4core3fmt7Display3fmt
FNDA:8,_RNvMs1_NtNtCs4kTbYauoumE_12rust_backend6domain9equipmentNtB5_9Equipment15set_coordinates
FNDA:9,_RNvMs1_NtNtCs4kTbYauoumE_12rust_backend6domain9equipmentNtB5_9Equipment17coordinates_tuple
FNF:16
FNH:13
DA:20,0
DA:21,0
DA:22,0
DA:23,0
DA:24,0
DA:25,0
DA:27,0
DA:31,0
DA:32,0
DA:33,0
DA:53,0
DA:54,0
DA:55,0
DA:56,0
DA:57,0
DA:58,0
DA:59,0
DA:60,0
DA:61,0
DA:62,0
DA:63,0
DA:64,0
DA:65,0
DA:66,0
DA:67,0
DA:68,0
DA:69,0
DA:73,9
DA:74,9
DA:75,8
DA:76,8
DA:77,5
DA:78,4
DA:79,4
DA:81,3
DA:83,8
DA:84,9
DA:86,8
DA:87,8
DA:88,2
DA:89,2
DA:90,2
DA:91,6
DA:92,6
DA:93,2
DA:94,2
DA:95,2
DA:96,4
DA:97,4
DA:98,4
DA:99,8
DA:116,7
DA:117,7
DA:118,7
DA:119,7
DA:120,7
DA:121,7
DA:122,7
DA:123,7
DA:124,7
DA:125,7
DA:126,7
DA:127,7
DA:128,7
DA:129,7
DA:130,7
DA:131,7
DA:134,1
DA:135,1
DA:136,1
DA:137,1
DA:140,1
DA:141,1
DA:142,1
DA:145,1
DA:146,1
DA:147,1
DA:150,1
DA:151,1
DA:154,1
DA:155,1
DA:158,1
DA:159,1
DA:162,1
DA:165,1
DA:166,1
DA:167,1
DA:168,1
DA:171,1
DA:172,1
DA:173,1
DA:174,1
DA:175,1
DA:176,1
DA:177,1
DA:178,1
DA:179,1
DA:182,1
DA:183,1
DA:184,1
DA:185,1
DA:186,1
DA:187,1
DA:188,1
DA:189,1
DA:190,1
DA:193,1
DA:194,1
DA:195,1
DA:196,1
DA:198,1
DA:199,1
DA:201,1
DA:202,1
DA:204,1
DA:205,1
DA:206,1
DA:209,1
DA:210,1
DA:211,1
DA:212,1
DA:213,1
DA:214,1
DA:215,1
DA:216,1
DA:217,1
DA:218,1
DA:221,1
DA:222,1
DA:223,1
DA:224,1
DA:225,1
DA:226,1
DA:227,1
DA:228,1
DA:231,1
DA:232,1
DA:235,1
DA:237,1
DA:239,1
DA:241,1
DA:244,1
DA:245,1
DA:246,1
BRF:0
BRH:0
LF:145
LH:118
end_of_record
SF:/Users/mykolborghese/rust-backend/src/domain/errors.rs
FN:23,_RINvMNtNtCscP9pq2ikS3v_12rust_backend6domain6errorsNtB3_11DomainError10validationpEB7_
FN:45,_RINvMNtNtCscP9pq2ikS3v_12rust_backend6domain6errorsNtB3_11DomainError22insufficient_inventorypEB7_
FN:27,_RINvMNtNtCscP9pq2ikS3v_12rust_backend6domain6errorsNtB3_11DomainError8conflictpEB7_
FN:19,_RINvMNtNtCscP9pq2ikS3v_12rust_backend6domain6errorsNtB3_11DomainError9not_foundpEB7_
FN:35,_RNvMNtNtCscP9pq2ikS3v_12rust_backend6domain6errorsNtB2_11DomainError23equipment_not_available
FN:53,_RNvMNtNtCscP9pq2ikS3v_12rust_backend6domain6errorsNtB2_11DomainError26rental_cannot_be_cancelled
FN:31,_RNvMNtNtCscP9pq2ikS3v_12rust_backend6domain6errorsNtB2_11DomainError27cannot_delete_active_rental
FN:57,_RNvMNtNtCscP9pq2ikS3v_12rust_backend6domain6errorsNtB2_11DomainError27payment_required_for_action
FN:41,_RNvMNtNtCscP9pq2ikS3v_12rust_backend6domain6errorsNtB2_11DomainError30cannot_modify_completed_rental
FN:49,_RNvMNtNtCscP9pq2ikS3v_12rust_backend6domain6errorsNtB2_11DomainError30user_already_has_active_rental
FN:136,_RNvNtNtNtNtCs4kTbYauoumE_12rust_backend6domain6errors5tests5clones_22clone_validation_error
FN:129,_RNvNtNtNtNtCs4kTbYauoumE_12rust_backend6domain6errors5tests5clones_26clone_produces_equal_error
FN:23,_RINvMNtNtCs4kTbYauoumE_12rust_backend6domain6errorsNtB3_11DomainError10validationReEB7_
FN:45,_RINvMNtNtCs4kTbYauoumE_12rust_backend6domain6errorsNtB3_11DomainError22insufficient_inventoryReEB7_
FN:27,_RINvMNtNtCs4kTbYauoumE_12rust_backend6domain6errorsNtB3_11DomainError8conflictReEB7_
FN:19,_RINvMNtNtCs4kTbYauoumE_12rust_backend6domain6errorsNtB3_11DomainError9not_foundReEB7_
FN:153,_RNvNtNtNtNtCs4kTbYauoumE_12rust_backend6domain6errors5tests12error_derives_20error_source_is_none
FN:147,_RNvNtNtNtNtCs4kTbYauoumE_12rust_backend6domain6errors5tests12error_derives_26error_trait_is_implemented
FN:219,_RNvNtNtNtNtCs4kTbYauoumE_12rust_backend6domain6errors5tests12constructorss_41insufficient_inventory_includes_item_name
FN:199,_RNvNtNtNtNtCs4kTbYauoumE_12rust_backend6domain6errors5tests12constructorss_44equipment_not_available_has_expected_message
FN:179,_RNvNtNtNtNtCs4kTbYauoumE_12rust_backend6domain6errors5tests12constructorss_45conflict_constructor_maps_to_conflict_variant
FN:164,_RNvNtNtNtNtCs4kTbYauoumE_12rust_backend6domain6errors5tests12constructorss_47not_found_constructor_maps_to_not_found_variant
FN:237,_RNvNtNtNtNtCs4kTbYauoumE_12rust_backend6domain6errors5tests12constructorss_47rental_cannot_be_cancelled_has_expected_message
FN:188,_RNvNtNtNtNtCs4kTbYauoumE_12rust_backend6domain6errors5tests12constructorss_48cannot_delete_active_rental_has_expected_message
FN:248,_RNvNtNtNtNtCs4kTbYauoumE_12rust_backend6domain6errors5tests12constructorss_48payment_required_for_action_has_expected_message
FN:170,_RNvNtNtNtNtCs4kTbYauoumE_12rust_backend6domain6errors5tests12constructorss_49validation_constructor_maps_to_validation_variant
FN:210,_RNvNtNtNtNtCs4kTbYauoumE_12rust_backend6domain6errors5tests12constructorss_51cannot_modify_completed_rental_has_expected_message
FN:228,_RNvNtNtNtNtCs4kTbYauoumE_12rust_backend6domain6errors5tests12constructorss_51user_already_has_active_rental_has_expected_message
FN:35,_RNvMNtNtCs4kTbYauoumE_12rust_backend6domain6errorsNtB2_11DomainError23equipment_not_available
FN:53,_RNvMNtNtCs4kTbYauoumE_12rust_backend6domain6errorsNtB2_11DomainError26rental_cannot_be_cancelled
FN:31,_RNvMNtNtCs4kTbYauoumE_12rust_backend6domain6errorsNtB2_11DomainError27cannot_delete_active_rental
FN:57,_RNvMNtNtCs4kTbYauoumE_12rust_backend6domain6errorsNtB2_11DomainError27payment_required_for_action
FN:41,_RNvMNtNtCs4kTbYauoumE_12rust_backend6domain6errorsNtB2_11DomainError30cannot_modify_completed_rental
FN:49,_RNvMNtNtCs4kTbYauoumE_12rust_backend6domain6errorsNtB2_11DomainError30user_already_has_active_rental
FN:104,_RNvNtNtNtNtCs4kTbYauoumE_12rust_backend6domain6errors5tests8equalitys_31same_not_found_errors_are_equal
FN:118,_RNvNtNtNtNtCs4kTbYauoumE_12rust_backend6domain6errors5tests8equalitys_32different_variants_are_not_equal
FN:111,_RNvNtNtNtNtCs4kTbYauoumE_12rust_backend6domain6errors5tests8equalitys_48different_message_not_found_errors_are_not_equal
FN:94,_RNvNtNtNtNtCs4kTbYauoumE_12rust_backend6domain6errors5tests7displays_30conflict_displays_with_message
FN:72,_RNvNtNtNtNtCs4kTbYauoumE_12rust_backend6domain6errors5tests7displays_31not_found_displays_with_message
FN:78,_RNvNtNtNtNtCs4kTbYauoumE_12rust_backend6domain6errors5tests7displays_38validation_error_displays_with_message
FN:84,_RNvNtNtNtNtCs4kTbYauoumE_12rust_backend6domain6errors5tests7displays_45business_rule_violation_displays_with_message
FNDA:0,_RINvMNtNtCscP9pq2ikS3v_12rust_backend6domain6errorsNtB3_11DomainError10validationpEB7_
FNDA:0,_RINvMNtNtCscP9pq2ikS3v_12rust_backend6domain6errorsNtB3_11DomainError22insufficient_inventorypEB7_
FNDA:0,_RINvMNtNtCscP9pq2ikS3v_12rust_backend6domain6errorsNtB3_11DomainError8conflictpEB7_
FNDA:0,_RINvMNtNtCscP9pq2ikS3v_12rust_backend6domain6errorsNtB3_11DomainError9not_foundpEB7_
FNDA:0,_RNvMNtNtCscP9pq2ikS3v_12rust_backend6domain6errorsNtB2_11DomainError23equipment_not_available
FNDA:0,_RNvMNtNtCscP9pq2ikS3v_12rust_backend6domain6errorsNtB2_11DomainError26rental_cannot_be_cancelled
FNDA:0,_RNvMNtNtCscP9pq2ikS3v_12rust_backend6domain6errorsNtB2_11DomainError27cannot_delete_active_rental
FNDA:0,_RNvMNtNtCscP9pq2ikS3v_12rust_backend6domain6errorsNtB2_11DomainError27payment_required_for_action
FNDA:0,_RNvMNtNtCscP9pq2ikS3v_12rust_backend6domain6errorsNtB2_11DomainError30cannot_modify_completed_rental
FNDA:0,_RNvMNtNtCscP9pq2ikS3v_12rust_backend6domain6errorsNtB2_11DomainError30user_already_has_active_rental
FNDA:1,_RNvNtNtNtNtCs4kTbYauoumE_12rust_backend6domain6errors5tests5clones_22clone_validation_error
FNDA:1,_RNvNtNtNtNtCs4kTbYauoumE_12rust_backend6domain6errors5tests5clones_26clone_produces_equal_error
FNDA:1,_RINvMNtNtCs4kTbYauoumE_12rust_backend6domain6errorsNtB3_11DomainError10validationReEB7_
FNDA:1,_RINvMNtNtCs4kTbYauoumE_12rust_backend6domain6errorsNtB3_11DomainError22insufficient_inventoryReEB7_
FNDA:1,_RINvMNtNtCs4kTbYauoumE_12rust_backend6domain6errorsNtB3_11DomainError8conflictReEB7_
FNDA:1,_RINvMNtNtCs4kTbYauoumE_12rust_backend6domain6errorsNtB3_11DomainError9not_foundReEB7_
FNDA:1,_RNvNtNtNtNtCs4kTbYauoumE_12rust_backend6domain6errors5tests12error_derives_20error_source_is_none
FNDA:1,_RNvNtNtNtNtCs4kTbYauoumE_12rust_backend6domain6errors5tests12error_derives_26error_trait_is_implemented
FNDA:1,_RNvNtNtNtNtCs4kTbYauoumE_12rust_backend6domain6errors5tests12constructorss_41insufficient_inventory_includes_item_name
FNDA:1,_RNvNtNtNtNtCs4kTbYauoumE_12rust_backend6domain6errors5tests12constructorss_44equipment_not_available_has_expected_message
FNDA:1,_RNvNtNtNtNtCs4kTbYauoumE_12rust_backend6domain6errors5tests12constructorss_45conflict_constructor_maps_to_conflict_variant
FNDA:1,_RNvNtNtNtNtCs4kTbYauoumE_12rust_backend6domain6errors5tests12constructorss_47not_found_constructor_maps_to_not_found_variant
FNDA:1,_RNvNtNtNtNtCs4kTbYauoumE_12rust_backend6domain6errors5tests12constructorss_47rental_cannot_be_cancelled_has_expected_message
FNDA:1,_RNvNtNtNtNtCs4kTbYauoumE_12rust_backend6domain6errors5tests12constructorss_48cannot_delete_active_rental_has_expected_message
FNDA:1,_RNvNtNtNtNtCs4kTbYauoumE_12rust_backend6domain6errors5tests12constructorss_48payment_required_for_action_has_expected_message
FNDA:1,_RNvNtNtNtNtCs4kTbYauoumE_12rust_backend6domain6errors5tests12constructorss_49validation_constructor_maps_to_validation_variant
FNDA:1,_RNvNtNtNtNtCs4kTbYauoumE_12rust_backend6domain6errors5tests12constructorss_51cannot_modify_completed_rental_has_expected_message
FNDA:1,_RNvNtNtNtNtCs4kTbYauoumE_12rust_backend6domain6errors5tests12constructorss_51user_already_has_active_rental_has_expected_message
FNDA:1,_RNvMNtNtCs4kTbYauoumE_12rust_backend6domain6errorsNtB2_11DomainError23equipment_not_available
FNDA:1,_RNvMNtNtCs4kTbYauoumE_12rust_backend6domain6errorsNtB2_11DomainError26rental_cannot_be_cancelled
FNDA:1,_RNvMNtNtCs4kTbYauoumE_12rust_backend6domain6errorsNtB2_11DomainError27cannot_delete_active_rental
FNDA:1,_RNvMNtNtCs4kTbYauoumE_12rust_backend6domain6errorsNtB2_11DomainError27payment_required_for_action
FNDA:1,_RNvMNtNtCs4kTbYauoumE_12rust_backend6domain6errorsNtB2_11DomainError30cannot_modify_completed_rental
FNDA:1,_RNvMNtNtCs4kTbYauoumE_12rust_backend6domain6errorsNtB2_11DomainError30user_already_has_active_rental
FNDA:1,_RNvNtNtNtNtCs4kTbYauoumE_12rust_backend6domain6errors5tests8equalitys_31same_not_found_errors_are_equal
FNDA:1,_RNvNtNtNtNtCs4kTbYauoumE_12rust_backend6domain6errors5tests8equalitys_32different_variants_are_not_equal
FNDA:1,_RNvNtNtNtNtCs4kTbYauoumE_12rust_backend6domain6errors5tests8equalitys_48different_message_not_found_errors_are_not_equal
FNDA:1,_RNvNtNtNtNtCs4kTbYauoumE_12rust_backend6domain6errors5tests7displays_30conflict_displays_with_message
FNDA:1,_RNvNtNtNtNtCs4kTbYauoumE_12rust_backend6domain6errors5tests7displays_31not_found_displays_with_message
FNDA:1,_RNvNtNtNtNtCs4kTbYauoumE_12rust_backend6domain6errors5tests7displays_38validation_error_displays_with_message
FNDA:1,_RNvNtNtNtNtCs4kTbYauoumE_12rust_backend6domain6errors5tests7displays_45business_rule_violation_displays_with_message
FNF:31
FNH:31
DA:19,1
DA:20,1
DA:21,1
DA:23,1
DA:24,1
DA:25,1
DA:27,1
DA:28,1
DA:29,1
DA:31,1
DA:32,1
DA:33,1
DA:35,1
DA:36,1
DA:37,1
DA:38,1
DA:39,1
DA:41,1
DA:42,1
DA:43,1
DA:45,1
DA:46,1
DA:47,1
DA:49,1
DA:50,1
DA:51,1
DA:53,1
DA:54,1
DA:55,1
DA:57,1
DA:58,1
DA:59,1
DA:60,1
DA:61,1
DA:72,1
DA:73,1
DA:74,1
DA:75,1
DA:78,1
DA:79,1
DA:80,1
DA:81,1
DA:84,1
DA:85,1
DA:86,1
DA:87,1
DA:88,1
DA:91,1
DA:94,1
DA:95,1
DA:96,1
DA:97,1
DA:104,1
DA:105,1
DA:106,1
DA:107,1
DA:108,1
DA:111,1
DA:112,1
DA:113,1
DA:114,1
DA:115,1
DA:118,1
DA:119,1
DA:120,1
DA:121,1
DA:122,1
DA:129,1
DA:130,1
DA:131,1
DA:132,1
DA:133,1
DA:136,1
DA:137,1
DA:138,1
DA:139,1
DA:140,1
DA:147,1
DA:148,1
DA:149,1
DA:150,1
DA:153,1
DA:154,1
DA:156,1
DA:157,1
DA:164,1
DA:165,1
DA:166,1
DA:167,1
DA:170,1
DA:171,1
DA:172,1
DA:174,1
DA:176,1
DA:179,1
DA:180,1
DA:181,1
DA:183,1
DA:185,1
DA:188,1
DA:189,1
DA:190,1
DA:192,1
DA:193,1
DA:194,1
DA:196,1
DA:199,1
DA:200,1
DA:201,1
DA:203,1
DA:204,1
DA:205,1
DA:207,1
DA:210,1
DA:211,1
DA:212,1
DA:214,1
DA:216,1
DA:219,1
DA:220,1
DA:221,1
DA:223,1
DA:225,1
DA:228,1
DA:229,1
DA:230,1
DA:232,1
DA:234,1
DA:237,1
DA:238,1
DA:239,1
DA:241,1
DA:242,1
DA:243,1
DA:245,1
DA:248,1
DA:249,1
DA:250,1
DA:252,1
DA:253,1
DA:254,1
DA:256,1
BRF:0
BRH:0
LF:142
LH:142
end_of_record
SF:/Users/mykolborghese/rust-backend/src/domain/user.rs
FN:18,_RNvMNtNtCscP9pq2ikS3v_12rust_backend6domain4userNtB2_4Role6as_str
FN:74,_RNvMs1_NtNtCscP9pq2ikS3v_12rust_backend6domain4userNtB5_12AuthProvider6as_str
FN:46,_RNvXs0_NtNtCscP9pq2ikS3v_12rust_backend6domain4userNtB5_4UserNtNtCsezyhsC6CBT9_4core7default7Default7default
FN:85,_RNvXs2_NtNtCscP9pq2ikS3v_12rust_backend6domain4userNtB5_12AuthProviderNtNtCsezyhsC6CBT9_4core3fmt7Display3fmt
FN:28,_RNvXs_NtNtCscP9pq2ikS3v_12rust_backend6domain4userNtB4_4RoleNtNtCsezyhsC6CBT9_4core3fmt7Display3fmt
FN:129,_RNvNtNtNtCs4kTbYauoumE_12rust_backend6domain4user5testss_21role_partial_eq_works
FN:106,_RNvNtNtNtCs4kTbYauoumE_12rust_backend6domain4user5testss_28role_serializes_to_lowercase
FN:113,_RNvNtNtNtCs4kTbYauoumE_12rust_backend6domain4user5testss_32role_deserializes_from_lowercase
FN:139,_RNvNtNtNtCs4kTbYauoumE_12rust_backend6domain4user5testss_37auth_provider_serializes_to_lowercase
FN:159,_RNvNtNtNtCs4kTbYauoumE_12rust_backend6domain4user5testss_41auth_provider_deserializes_from_lowercase
FN:18,_RNvMNtNtCs4kTbYauoumE_12rust_backend6domain4userNtB2_4Role6as_str
FN:74,_RNvMs1_NtNtCs4kTbYauoumE_12rust_backend6domain4userNtB5_12AuthProvider6as_str
FN:46,_RNvXs0_NtNtCs4kTbYauoumE_12rust_backend6domain4userNtB5_4UserNtNtCsezyhsC6CBT9_4core7default7Default7default
FN:85,_RNvXs2_NtNtCs4kTbYauoumE_12rust_backend6domain4userNtB5_12AuthProviderNtNtCsezyhsC6CBT9_4core3fmt7Display3fmt
FN:28,_RNvXs_NtNtCs4kTbYauoumE_12rust_backend6domain4userNtB4_4RoleNtNtCsezyhsC6CBT9_4core3fmt7Display3fmt
FNDA:0,_RNvMNtNtCscP9pq2ikS3v_12rust_backend6domain4userNtB2_4Role6as_str
FNDA:0,_RNvMs1_NtNtCscP9pq2ikS3v_12rust_backend6domain4userNtB5_12AuthProvider6as_str
FNDA:0,_RNvXs0_NtNtCscP9pq2ikS3v_12rust_backend6domain4userNtB5_4UserNtNtCsezyhsC6CBT9_4core7default7Default7default
FNDA:0,_RNvXs2_NtNtCscP9pq2ikS3v_12rust_backend6domain4userNtB5_12AuthProviderNtNtCsezyhsC6CBT9_4core3fmt7Display3fmt
FNDA:0,_RNvXs_NtNtCscP9pq2ikS3v_12rust_backend6domain4userNtB4_4RoleNtNtCsezyhsC6CBT9_4core3fmt7Display3fmt
FNDA:1,_RNvNtNtNtCs4kTbYauoumE_12rust_backend6domain4user5testss_21role_partial_eq_works
FNDA:1,_RNvNtNtNtCs4kTbYauoumE_12rust_backend6domain4user5testss_28role_serializes_to_lowercase
FNDA:1,_RNvNtNtNtCs4kTbYauoumE_12rust_backend6domain4user5testss_32role_deserializes_from_lowercase
FNDA:1,_RNvNtNtNtCs4kTbYauoumE_12rust_backend6domain4user5testss_37auth_provider_serializes_to_lowercase
FNDA:1,_RNvNtNtNtCs4kTbYauoumE_12rust_backend6domain4user5testss_41auth_provider_deserializes_from_lowercase
FNDA:0,_RNvMNtNtCs4kTbYauoumE_12rust_backend6domain4userNtB2_4Role6as_str
FNDA:0,_RNvMs1_NtNtCs4kTbYauoumE_12rust_backend6domain4userNtB5_12AuthProvider6as_str
FNDA:0,_RNvXs0_NtNtCs4kTbYauoumE_12rust_backend6domain4userNtB5_4UserNtNtCsezyhsC6CBT9_4core7default7Default7default
FNDA:0,_RNvXs2_NtNtCs4kTbYauoumE_12rust_backend6domain4userNtB5_12AuthProviderNtNtCsezyhsC6CBT9_4core3fmt7Display3fmt
FNDA:0,_RNvXs_NtNtCs4kTbYauoumE_12rust_backend6domain4userNtB4_4RoleNtNtCsezyhsC6CBT9_4core3fmt7Display3fmt
FNF:10
FNH:5
DA:18,0
DA:19,0
DA:20,0
DA:21,0
DA:22,0
DA:24,0
DA:28,0
DA:29,0
DA:30,0
DA:46,0
DA:47,0
DA:48,0
DA:49,0
DA:50,0
DA:51,0
DA:52,0
DA:53,0
DA:54,0
DA:55,0
DA:56,0
DA:57,0
DA:58,0
DA:59,0
DA:74,0
DA:75,0
DA:76,0
DA:77,0
DA:78,0
DA:79,0
DA:81,0
DA:85,0
DA:86,0
DA:87,0
DA:106,1
DA:107,1
DA:108,1
DA:109,1
DA:110,1
DA:113,1
DA:114,1
DA:115,1
DA:118,1
DA:119,1
DA:122,1
DA:123,1
DA:126,1
DA:129,1
DA:130,1
DA:131,1
DA:132,1
DA:133,1
DA:134,1
DA:135,1
DA:136,1
DA:139,1
DA:140,1
DA:141,1
DA:144,1
DA:145,1
DA:148,1
DA:149,1
DA:152,1
DA:153,1
DA:156,1
DA:159,1
DA:160,1
DA:161,1
DA:164,1
DA:165,1
DA:168,1
DA:169,1
DA:172,1
DA:173,1
DA:176,1
BRF:0
BRH:0
LF:74
LH:41
end_of_record
SF:/Users/mykolborghese/rust-backend/src/error/app_error.rs
FN:94,_RNvMs_NtNtCscP9pq2ikS3v_12rust_backend5error9app_errorNtB4_8AppError10error_code
FN:118,_RNvMs_NtNtCscP9pq2ikS3v_12rust_backend5error9app_errorNtB4_8AppError11error_label
FN:134,_RNvMs_NtNtCscP9pq2ikS3v_12rust_backend5error9app_errorNtB4_8AppError14public_message
FN:152,_RNvMs_NtNtCscP9pq2ikS3v_12rust_backend5error9app_errorNtB4_8AppError17validation_issues
FN:74,_RNvXNtNtCscP9pq2ikS3v_12rust_backend5error9app_errorNtB2_8AppErrorNtNtNtCs5Ib3FUrOmpC_9actix_web5error14response_error13ResponseError11status_code
FN:55,_RNvXNtNtCscP9pq2ikS3v_12rust_backend5error9app_errorNtB2_8AppErrorNtNtNtCs5Ib3FUrOmpC_9actix_web5error14response_error13ResponseError14error_response
FN:111,_RINvMs_NtNtCscP9pq2ikS3v_12rust_backend5error9app_errorNtB5_8AppError16validation_errorNtNtCs5bkkNO3hTYU_5alloc6string6StringEB9_
FN:111,_RINvMs_NtNtCscP9pq2ikS3v_12rust_backend5error9app_errorNtB5_8AppError16validation_errorReEB9_
FN:111,_RINvMs_NtNtCs4kTbYauoumE_12rust_backend5error9app_errorNtB5_8AppError16validation_errorNtNtCs5bkkNO3hTYU_5alloc6string6StringEB9_
FN:111,_RINvMs_NtNtCs4kTbYauoumE_12rust_backend5error9app_errorNtB5_8AppError16validation_errorReEB9_
FN:94,_RNvMs_NtNtCs4kTbYauoumE_12rust_backend5error9app_errorNtB4_8AppError10error_code
FN:118,_RNvMs_NtNtCs4kTbYauoumE_12rust_backend5error9app_errorNtB4_8AppError11error_label
FN:134,_RNvMs_NtNtCs4kTbYauoumE_12rust_backend5error9app_errorNtB4_8AppError14public_message
FN:152,_RNvMs_NtNtCs4kTbYauoumE_12rust_backend5error9app_errorNtB4_8AppError17validation_issues
FN:74,_RNvXNtNtCs4kTbYauoumE_12rust_backend5error9app_errorNtB2_8AppErrorNtNtNtCs5Ib3FUrOmpC_9actix_web5error14response_error13ResponseError11status_code
FN:55,_RNvXNtNtCs4kTbYauoumE_12rust_backend5error9app_errorNtB2_8AppErrorNtNtNtCs5Ib3FUrOmpC_9actix_web5error14response_error13ResponseError14error_response
FNDA:0,_RNvMs_NtNtCscP9pq2ikS3v_12rust_backend5error9app_errorNtB4_8AppError10error_code
FNDA:0,_RNvMs_NtNtCscP9pq2ikS3v_12rust_backend5error9app_errorNtB4_8AppError11error_label
FNDA:0,_RNvMs_NtNtCscP9pq2ikS3v_12rust_backend5error9app_errorNtB4_8AppError14public_message
FNDA:0,_RNvMs_NtNtCscP9pq2ikS3v_12rust_backend5error9app_errorNtB4_8AppError17validation_issues
FNDA:0,_RNvXNtNtCscP9pq2ikS3v_12rust_backend5error9app_errorNtB2_8AppErrorNtNtNtCs5Ib3FUrOmpC_9actix_web5error14response_error13ResponseError11status_code
FNDA:0,_RNvXNtNtCscP9pq2ikS3v_12rust_backend5error9app_errorNtB2_8AppErrorNtNtNtCs5Ib3FUrOmpC_9actix_web5error14response_error13ResponseError14error_response
FNDA:0,_RINvMs_NtNtCscP9pq2ikS3v_12rust_backend5error9app_errorNtB5_8AppError16validation_errorNtNtCs5bkkNO3hTYU_5alloc6string6StringEB9_
FNDA:0,_RINvMs_NtNtCscP9pq2ikS3v_12rust_backend5error9app_errorNtB5_8AppError16validation_errorReEB9_
FNDA:2,_RINvMs_NtNtCs4kTbYauoumE_12rust_backend5error9app_errorNtB5_8AppError16validation_errorNtNtCs5bkkNO3hTYU_5alloc6string6StringEB9_
FNDA:7,_RINvMs_NtNtCs4kTbYauoumE_12rust_backend5error9app_errorNtB5_8AppError16validation_errorReEB9_
FNDA:17,_RNvMs_NtNtCs4kTbYauoumE_12rust_backend5error9app_errorNtB4_8AppError10error_code
FNDA:4,_RNvMs_NtNtCs4kTbYauoumE_12rust_backend5error9app_errorNtB4_8AppError11error_label
FNDA:7,_RNvMs_NtNtCs4kTbYauoumE_12rust_backend5error9app_errorNtB4_8AppError14public_message
FNDA:4,_RNvMs_NtNtCs4kTbYauoumE_12rust_backend5error9app_errorNtB4_8AppError17validation_issues
FNDA:17,_RNvXNtNtCs4kTbYauoumE_12rust_backend5error9app_errorNtB2_8AppErrorNtNtNtCs5Ib3FUrOmpC_9actix_web5error14response_error13ResponseError11status_code
FNDA:4,_RNvXNtNtCs4kTbYauoumE_12rust_backend5error9app_errorNtB2_8AppErrorNtNtNtCs5Ib3FUrOmpC_9actix_web5error14response_error13ResponseError14error_response
FNF:7
FNH:7
DA:55,4
DA:56,4
DA:57,4
DA:58,4
DA:60,4
DA:61,4
DA:62,4
DA:63,4
DA:66,4
DA:67,1
DA:68,1
DA:69,3
DA:71,4
DA:72,4
DA:74,17
DA:75,17
DA:76,1
DA:77,2
DA:78,1
DA:79,2
DA:80,2
DA:81,2
DA:82,1
DA:83,1
DA:84,1
DA:85,2
DA:87,2
DA:90,17
DA:94,17
DA:95,17
DA:96,1
DA:97,1
DA:98,2
DA:99,1
DA:100,2
DA:101,2
DA:102,1
DA:103,2
DA:104,1
DA:105,1
DA:106,1
DA:107,2
DA:109,17
DA:111,9
DA:112,9
DA:113,9
DA:114,9
DA:115,9
DA:116,9
DA:118,4
DA:119,4
DA:120,0
DA:121,0
DA:122,1
DA:123,0
DA:124,1
DA:125,1
DA:126,1
DA:127,0
DA:128,0
DA:129,0
DA:130,0
DA:132,4
DA:134,7
DA:135,7
DA:137,2
DA:139,0
DA:140,0
DA:141,1
DA:142,2
DA:143,1
DA:144,1
DA:145,0
DA:146,0
DA:147,0
DA:148,1
DA:150,7
DA:152,4
DA:153,1
DA:154,1
DA:155,3
DA:157,4
BRF:0
BRH:0
LF:82
LH:70
end_of_record
SF:/Users/mykolborghese/rust-backend/src/error/conversions.rs
FN:6,_RNvXNtNtCscP9pq2ikS3v_12rust_backend5error11conversionsNtNtB4_9app_error8AppErrorINtNtCsezyhsC6CBT9_4core7convert4FromNtNtNtB6_6domain6errors11DomainErrorE4from
FN:23,_RNvXs0_NtNtCscP9pq2ikS3v_12rust_backend5error11conversionsNtNtB7_9app_error8AppErrorINtNtCsezyhsC6CBT9_4core7convert4FromNtNtCsazdQGloekLa_9sqlx_core5error5ErrorE4from
FN:54,_RNvXs1_NtNtCscP9pq2ikS3v_12rust_backend5error11conversionsNtNtB7_9app_error8AppErrorINtNtCsezyhsC6CBT9_4core7convert4FromNtNtCsjhYjw5FDZzk_9validator5types16ValidationErrorsE4from
FN:73,_RNvXs2_NtNtCscP9pq2ikS3v_12rust_backend5error11conversionsNtNtB7_9app_error8AppErrorINtNtCsezyhsC6CBT9_4core7convert4FromNtNtCslhZCikzeWBA_12jsonwebtoken6errors5ErrorE4from
FN:17,_RNvXs_NtNtCscP9pq2ikS3v_12rust_backend5error11conversionsNtNtB6_9app_error8AppErrorINtNtCsezyhsC6CBT9_4core7convert4FromNtCs580iIggyM4g_6anyhow5ErrorE4from
FN:57,_RNCNvXs1_NtNtCscP9pq2ikS3v_12rust_backend5error11conversionsNtNtB9_9app_error8AppErrorINtNtCsezyhsC6CBT9_4core7convert4FromNtNtCsjhYjw5FDZzk_9validator5types16ValidationErrorsE4from0Bb_
FN:6,_RNvXNtNtCs4kTbYauoumE_12rust_backend5error11conversionsNtNtB4_9app_error8AppErrorINtNtCsezyhsC6CBT9_4core7convert4FromNtNtNtB6_6domain6errors11DomainErrorE4from
FN:23,_RNvXs0_NtNtCs4kTbYauoumE_12rust_backend5error11conversionsNtNtB7_9app_error8AppErrorINtNtCsezyhsC6CBT9_4core7convert4FromNtNtCsazdQGloekLa_9sqlx_core5error5ErrorE4from
FN:54,_RNvXs1_NtNtCs4kTbYauoumE_12rust_backend5error11conversionsNtNtB7_9app_error8AppErrorINtNtCsezyhsC6CBT9_4core7convert4FromNtNtCsjhYjw5FDZzk_9validator5types16ValidationErrorsE4from
FN:73,_RNvXs2_NtNtCs4kTbYauoumE_12rust_backend5error11conversionsNtNtB7_9app_error8AppErrorINtNtCsezyhsC6CBT9_4core7convert4FromNtNtCslhZCikzeWBA_12jsonwebtoken6errors5ErrorE4from
FN:17,_RNvXs_NtNtCs4kTbYauoumE_12rust_backend5error11conversionsNtNtB6_9app_error8AppErrorINtNtCsezyhsC6CBT9_4core7convert4FromNtCs580iIggyM4g_6anyhow5ErrorE4from
FN:57,_RNCNvXs1_NtNtCs4kTbYauoumE_12rust_backend5error11conversionsNtNtB9_9app_error8AppErrorINtNtCsezyhsC6CBT9_4core7convert4FromNtNtCsjhYjw5FDZzk_9validator5types16ValidationErrorsE4from0Bb_
FNDA:0,_RNvXNtNtCscP9pq2ikS3v_12rust_backend5error11conversionsNtNtB4_9app_error8AppErrorINtNtCsezyhsC6CBT9_4core7convert4FromNtNtNtB6_6domain6errors11DomainErrorE4from
FNDA:0,_RNvXs0_NtNtCscP9pq2ikS3v_12rust_backend5error11conversionsNtNtB7_9app_error8AppErrorINtNtCsezyhsC6CBT9_4core7convert4FromNtNtCsazdQGloekLa_9sqlx_core5error5ErrorE4from
FNDA:0,_RNvXs1_NtNtCscP9pq2ikS3v_12rust_backend5error11conversionsNtNtB7_9app_error8AppErrorINtNtCsezyhsC6CBT9_4core7convert4FromNtNtCsjhYjw5FDZzk_9validator5types16ValidationErrorsE4from
FNDA:0,_RNvXs2_NtNtCscP9pq2ikS3v_12rust_backend5error11conversionsNtNtB7_9app_error8AppErrorINtNtCsezyhsC6CBT9_4core7convert4FromNtNtCslhZCikzeWBA_12jsonwebtoken6errors5ErrorE4from
FNDA:0,_RNvXs_NtNtCscP9pq2ikS3v_12rust_backend5error11conversionsNtNtB6_9app_error8AppErrorINtNtCsezyhsC6CBT9_4core7convert4FromNtCs580iIggyM4g_6anyhow5ErrorE4from
FNDA:0,_RNCNvXs1_NtNtCscP9pq2ikS3v_12rust_backend5error11conversionsNtNtB9_9app_error8AppErrorINtNtCsezyhsC6CBT9_4core7convert4FromNtNtCsjhYjw5FDZzk_9validator5types16ValidationErrorsE4from0Bb_
FNDA:4,_RNvXNtNtCs4kTbYauoumE_12rust_backend5error11conversionsNtNtB4_9app_error8AppErrorINtNtCsezyhsC6CBT9_4core7convert4FromNtNtNtB6_6domain6errors11DomainErrorE4from
FNDA:0,_RNvXs0_NtNtCs4kTbYauoumE_12rust_backend5error11conversionsNtNtB7_9app_error8AppErrorINtNtCsezyhsC6CBT9_4core7convert4FromNtNtCsazdQGloekLa_9sqlx_core5error5ErrorE4from
FNDA:1,_RNvXs1_NtNtCs4kTbYauoumE_12rust_backend5error11conversionsNtNtB7_9app_error8AppErrorINtNtCsezyhsC6CBT9_4core7convert4FromNtNtCsjhYjw5FDZzk_9validator5types16ValidationErrorsE4from
FNDA:2,_RNvXs2_NtNtCs4kTbYauoumE_12rust_backend5error11conversionsNtNtB7_9app_error8AppErrorINtNtCsezyhsC6CBT9_4core7convert4FromNtNtCslhZCikzeWBA_12jsonwebtoken6errors5ErrorE4from
FNDA:0,_RNvXs_NtNtCs4kTbYauoumE_12rust_backend5error11conversionsNtNtB6_9app_error8AppErrorINtNtCsezyhsC6CBT9_4core7convert4FromNtCs580iIggyM4g_6anyhow5ErrorE4from
FNDA:0,_RNCNvXs1_NtNtCs4kTbYauoumE_12rust_backend5error11conversionsNtNtB9_9app_error8AppErrorINtNtCsezyhsC6CBT9_4core7convert4FromNtNtCsjhYjw5FDZzk_9validator5types16ValidationErrorsE4from0Bb_
FNF:6
FNH:3
DA:6,4
DA:7,4
DA:8,1
DA:9,1
DA:10,1
DA:11,1
DA:13,4
DA:17,0
DA:18,0
DA:19,0
DA:23,0
DA:24,0
DA:25,0
DA:26,0
DA:27,0
DA:28,0
DA:29,0
DA:30,0
DA:31,0
DA:32,0
DA:33,0
DA:34,0
DA:35,0
DA:36,0
DA:37,0
DA:38,0
DA:39,0
DA:40,0
DA:41,0
DA:42,0
DA:43,0
DA:45,0
DA:48,0
DA:50,0
DA:54,1
DA:55,1
DA:56,1
DA:57,1
DA:58,0
DA:59,0
DA:60,0
DA:61,0
DA:63,1
DA:64,1
DA:65,0
DA:68,1
DA:69,1
DA:73,2
DA:74,2
DA:75,1
DA:76,1
DA:78,2
BRF:0
BRH:0
LF:53
LH:20
end_of_record
SF:/Users/mykolborghese/rust-backend/src/error/db_mapping.rs
FN:3,_RNvNtNtCscP9pq2ikS3v_12rust_backend5error10db_mapping18map_database_error
FN:71,_RNvNtNtCscP9pq2ikS3v_12rust_backend5error10db_mapping30required_field_message_from_db
FN:80,_RNvNtNtCscP9pq2ikS3v_12rust_backend5error10db_mapping31extract_raise_exception_message
FN:43,_RNvNtNtCscP9pq2ikS3v_12rust_backend5error10db_mapping32conflict_message_from_constraint
FN:14,_RNCNvNtNtCscP9pq2ikS3v_12rust_backend5error10db_mapping18map_database_error0B7_
FN:3,_RNvNtNtCs4kTbYauoumE_12rust_backend5error10db_mapping18map_database_error
FN:71,_RNvNtNtCs4kTbYauoumE_12rust_backend5error10db_mapping30required_field_message_from_db
FN:80,_RNvNtNtCs4kTbYauoumE_12rust_backend5error10db_mapping31extract_raise_exception_message
FN:43,_RNvNtNtCs4kTbYauoumE_12rust_backend5error10db_mapping32conflict_message_from_constraint
FN:14,_RNCNvNtNtCs4kTbYauoumE_12rust_backend5error10db_mapping18map_database_error0B7_
FNDA:0,_RNvNtNtCscP9pq2ikS3v_12rust_backend5error10db_mapping18map_database_error
FNDA:0,_RNvNtNtCscP9pq2ikS3v_12rust_backend5error10db_mapping30required_field_message_from_db
FNDA:0,_RNvNtNtCscP9pq2ikS3v_12rust_backend5error10db_mapping31extract_raise_exception_message
FNDA:0,_RNvNtNtCscP9pq2ikS3v_12rust_backend5error10db_mapping32conflict_message_from_constraint
FNDA:0,_RNCNvNtNtCscP9pq2ikS3v_12rust_backend5error10db_mapping18map_database_error0B7_
FNDA:13,_RNvNtNtCs4kTbYauoumE_12rust_backend5error10db_mapping18map_database_error
FNDA:3,_RNvNtNtCs4kTbYauoumE_12rust_backend5error10db_mapping30required_field_message_from_db
FNDA:4,_RNvNtNtCs4kTbYauoumE_12rust_backend5error10db_mapping31extract_raise_exception_message
FNDA:8,_RNvNtNtCs4kTbYauoumE_12rust_backend5error10db_mapping32conflict_message_from_constraint
FNDA:0,_RNCNvNtNtCs4kTbYauoumE_12rust_backend5error10db_mapping18map_database_error0B7_
FNF:5
FNH:4
DA:3,13
DA:4,13
DA:5,13
DA:6,13
DA:7,13
DA:8,13
DA:9,13
DA:10,3
DA:11,3
DA:12,10
DA:13,1
DA:14,1
DA:16,9
DA:17,1
DA:18,1
DA:19,8
DA:20,1
DA:21,1
DA:22,7
DA:23,6
DA:24,2
DA:25,2
DA:26,2
DA:27,4
DA:28,1
DA:29,1
DA:30,1
DA:31,3
DA:32,1
DA:33,1
DA:34,2
DA:35,1
DA:36,1
DA:37,1
DA:39,1
DA:41,13
DA:43,8
DA:44,8
DA:45,7
DA:46,6
DA:47,5
DA:48,5
DA:49,5
DA:50,1
DA:52,4
DA:53,3
DA:54,3
DA:55,3
DA:56,3
DA:57,3
DA:58,3
DA:59,3
DA:60,3
DA:61,0
DA:63,3
DA:64,2
DA:65,1
DA:67,2
DA:69,8
DA:71,3
DA:72,3
DA:73,3
DA:74,2
DA:75,2
DA:76,2
DA:77,2
DA:78,3
DA:80,4
DA:81,4
DA:82,1
DA:83,1
DA:84,1
DA:85,1
DA:86,0
DA:87,0
DA:88,3
DA:89,3
DA:90,3
DA:91,1
DA:93,2
DA:95,4
BRF:0
BRH:0
LF:82
LH:78
end_of_record
SF:/Users/mykolborghese/rust-backend/src/error/validation_mapping.rs
FN:23,_RNCNvNtNtCscP9pq2ikS3v_12rust_backend5error18validation_mapping25collect_validation_issues0B7_
FN:5,_RNvNtNtCscP9pq2ikS3v_12rust_backend5error18validation_mapping25collect_validation_issues
FN:23,_RNCNvNtNtCs4kTbYauoumE_12rust_backend5error18validation_mapping25collect_validation_issues0B7_
FN:5,_RNvNtNtCs4kTbYauoumE_12rust_backend5error18validation_mapping25collect_validation_issues
FNDA:0,_RNCNvNtNtCscP9pq2ikS3v_12rust_backend5error18validation_mapping25collect_validation_issues0B7_
FNDA:0,_RNvNtNtCscP9pq2ikS3v_12rust_backend5error18validation_mapping25collect_validation_issues
FNDA:0,_RNCNvNtNtCs4kTbYauoumE_12rust_backend5error18validation_mapping25collect_validation_issues0B7_
FNDA:1,_RNvNtNtCs4kTbYauoumE_12rust_backend5error18validation_mapping25collect_validation_issues
FNF:2
FNH:1
DA:5,1
DA:6,1
DA:7,1
DA:8,1
DA:9,1
DA:10,1
DA:11,1
DA:12,0
DA:13,1
DA:16,1
DA:17,1
DA:18,1
DA:19,1
DA:20,1
DA:21,1
DA:22,1
DA:23,1
DA:24,1
DA:25,1
DA:26,1
DA:27,1
DA:28,1
DA:31,0
DA:32,0
DA:33,0
DA:34,0
DA:35,0
DA:36,0
DA:37,0
DA:41,1
BRF:0
BRH:0
LF:31
LH:22
end_of_record
SF:/Users/mykolborghese/rust-backend/src/infrastructure/auth0/client.rs
FN:166,_RNCNCNvXs_NtNtNtCscP9pq2ikS3v_12rust_backend14infrastructure5auth06clientNtB8_18HttpAuth0ApiClientNtNtBa_6traits14Auth0ApiClient14password_grant00Be_
FN:173,_RNCNCNvXs_NtNtNtCscP9pq2ikS3v_12rust_backend14infrastructure5auth06clientNtB8_18HttpAuth0ApiClientNtNtBa_6traits14Auth0ApiClient14password_grant0s0_0Be_
FN:192,_RNCNCNvXs_NtNtNtCscP9pq2ikS3v_12rust_backend14infrastructure5auth06clientNtB8_18HttpAuth0ApiClientNtNtBa_6traits14Auth0ApiClient14password_grant0s1_0Be_
FN:205,_RNCNCNvXs_NtNtNtCscP9pq2ikS3v_12rust_backend14infrastructure5auth06clientNtB8_18HttpAuth0ApiClientNtNtBa_6traits14Auth0ApiClient14password_grant0s2_0Be_
FN:169,_RNCNCNvXs_NtNtNtCscP9pq2ikS3v_12rust_backend14infrastructure5auth06clientNtB8_18HttpAuth0ApiClientNtNtBa_6traits14Auth0ApiClient14password_grant0s_0Be_
FN:124,_RNCNCNvXs_NtNtNtCscP9pq2ikS3v_12rust_backend14infrastructure5auth06clientNtB8_18HttpAuth0ApiClientNtNtBa_6traits14Auth0ApiClient6signup00Be_
FN:145,_RNCNCNvXs_NtNtNtCscP9pq2ikS3v_12rust_backend14infrastructure5auth06clientNtB8_18HttpAuth0ApiClientNtNtBa_6traits14Auth0ApiClient6signup0s0_0Be_
FN:158,_RNCNCNvXs_NtNtNtCscP9pq2ikS3v_12rust_backend14infrastructure5auth06clientNtB8_18HttpAuth0ApiClientNtNtBa_6traits14Auth0ApiClient6signup0s1_0Be_
FN:133,_RNCNCNvXs_NtNtNtCscP9pq2ikS3v_12rust_backend14infrastructure5auth06clientNtB8_18HttpAuth0ApiClientNtNtBa_6traits14Auth0ApiClient6signup0s_0Be_
FN:69,_RNCNvMNtNtNtCscP9pq2ikS3v_12rust_backend14infrastructure5auth06clientNtB4_18HttpAuth0ApiClient12handle_error0Ba_
FN:37,_RNCNvMNtNtNtCscP9pq2ikS3v_12rust_backend14infrastructure5auth06clientNtB4_18HttpAuth0ApiClient3new0Ba_
FN:61,_RNvMNtNtNtCscP9pq2ikS3v_12rust_backend14infrastructure5auth06clientNtB2_18HttpAuth0ApiClient10signup_url
FN:69,_RNvMNtNtNtCscP9pq2ikS3v_12rust_backend14infrastructure5auth06clientNtB2_18HttpAuth0ApiClient12handle_error
FN:65,_RNvMNtNtNtCscP9pq2ikS3v_12rust_backend14infrastructure5auth06clientNtB2_18HttpAuth0ApiClient15oauth_token_url
FN:31,_RNvMNtNtNtCscP9pq2ikS3v_12rust_backend14infrastructure5auth06clientNtB2_18HttpAuth0ApiClient3new
FN:54,_RNvMNtNtNtCscP9pq2ikS3v_12rust_backend14infrastructure5auth06clientNtB2_18HttpAuth0ApiClient6domain
FN:230,_RNvXs0_NtNtNtCscP9pq2ikS3v_12rust_backend14infrastructure5auth06clientNtB5_22DisabledAuth0ApiClientNtNtB7_6traits14Auth0ApiClient14password_grant
FN:222,_RNvXs0_NtNtNtCscP9pq2ikS3v_12rust_backend14infrastructure5auth06clientNtB5_22DisabledAuth0ApiClientNtNtB7_6traits14Auth0ApiClient6signup
FN:164,_RNvXs_NtNtNtCscP9pq2ikS3v_12rust_backend14infrastructure5auth06clientNtB4_18HttpAuth0ApiClientNtNtB6_6traits14Auth0ApiClient14password_grant
FN:118,_RNvXs_NtNtNtCscP9pq2ikS3v_12rust_backend14infrastructure5auth06clientNtB4_18HttpAuth0ApiClientNtNtB6_6traits14Auth0ApiClient6signup
FN:61,_RNvMNtNtNtCs4kTbYauoumE_12rust_backend14infrastructure5auth06clientNtB2_18HttpAuth0ApiClient10signup_url
FN:69,_RNvMNtNtNtCs4kTbYauoumE_12rust_backend14infrastructure5auth06clientNtB2_18HttpAuth0ApiClient12handle_error
FN:65,_RNvMNtNtNtCs4kTbYauoumE_12rust_backend14infrastructure5auth06clientNtB2_18HttpAuth0ApiClient15oauth_token_url
FN:31,_RNvMNtNtNtCs4kTbYauoumE_12rust_backend14infrastructure5auth06clientNtB2_18HttpAuth0ApiClient3new
FN:54,_RNvMNtNtNtCs4kTbYauoumE_12rust_backend14infrastructure5auth06clientNtB2_18HttpAuth0ApiClient6domain
FN:230,_RNvXs0_NtNtNtCs4kTbYauoumE_12rust_backend14infrastructure5auth06clientNtB5_22DisabledAuth0ApiClientNtNtB7_6traits14Auth0ApiClient14password_grant
FN:222,_RNvXs0_NtNtNtCs4kTbYauoumE_12rust_backend14infrastructure5auth06clientNtB5_22DisabledAuth0ApiClientNtNtB7_6traits14Auth0ApiClient6signup
FN:166,_RNCNCNvXs_NtNtNtCs4kTbYauoumE_12rust_backend14infrastructure5auth06clientNtB8_18HttpAuth0ApiClientNtNtBa_6traits14Auth0ApiClient14password_grant00Be_
FN:173,_RNCNCNvXs_NtNtNtCs4kTbYauoumE_12rust_backend14infrastructure5auth06clientNtB8_18HttpAuth0ApiClientNtNtBa_6traits14Auth0ApiClient14password_grant0s0_0Be_
FN:192,_RNCNCNvXs_NtNtNtCs4kTbYauoumE_12rust_backend14infrastructure5auth06clientNtB8_18HttpAuth0ApiClientNtNtBa_6traits14Auth0ApiClient14password_grant0s1_0Be_
FN:205,_RNCNCNvXs_NtNtNtCs4kTbYauoumE_12rust_backend14infrastructure5auth06clientNtB8_18HttpAuth0ApiClientNtNtBa_6traits14Auth0ApiClient14password_grant0s2_0Be_
FN:169,_RNCNCNvXs_NtNtNtCs4kTbYauoumE_12rust_backend14infrastructure5auth06clientNtB8_18HttpAuth0ApiClientNtNtBa_6traits14Auth0ApiClient14password_grant0s_0Be_
FN:124,_RNCNCNvXs_NtNtNtCs4kTbYauoumE_12rust_backend14infrastructure5auth06clientNtB8_18HttpAuth0ApiClientNtNtBa_6traits14Auth0ApiClient6signup00Be_
FN:145,_RNCNCNvXs_NtNtNtCs4kTbYauoumE_12rust_backend14infrastructure5auth06clientNtB8_18HttpAuth0ApiClientNtNtBa_6traits14Auth0ApiClient6signup0s0_0Be_
FN:158,_RNCNCNvXs_NtNtNtCs4kTbYauoumE_12rust_backend14infrastructure5auth06clientNtB8_18HttpAuth0ApiClientNtNtBa_6traits14Auth0ApiClient6signup0s1_0Be_
FN:133,_RNCNCNvXs_NtNtNtCs4kTbYauoumE_12rust_backend14infrastructure5auth06clientNtB8_18HttpAuth0ApiClientNtNtBa_6traits14Auth0ApiClient6signup0s_0Be_
FN:164,_RNvXs_NtNtNtCs4kTbYauoumE_12rust_backend14infrastructure5auth06clientNtB4_18HttpAuth0ApiClientNtNtB6_6traits14Auth0ApiClient14password_grant
FN:118,_RNvXs_NtNtNtCs4kTbYauoumE_12rust_backend14infrastructure5auth06clientNtB4_18HttpAuth0ApiClientNtNtB6_6traits14Auth0ApiClient6signup
FN:69,_RNCNvMNtNtNtCs4kTbYauoumE_12rust_backend14infrastructure5auth06clientNtB4_18HttpAuth0ApiClient12handle_error0Ba_
FN:37,_RNCNvMNtNtNtCs4kTbYauoumE_12rust_backend14infrastructure5auth06clientNtB4_18HttpAuth0ApiClient3new0Ba_
FNDA:0,_RNCNCNvXs_NtNtNtCscP9pq2ikS3v_12rust_backend14infrastructure5auth06clientNtB8_18HttpAuth0ApiClientNtNtBa_6traits14Auth0ApiClient14password_grant00Be_
FNDA:0,_RNCNCNvXs_NtNtNtCscP9pq2ikS3v_12rust_backend14infrastructure5auth06clientNtB8_18HttpAuth0ApiClientNtNtBa_6traits14Auth0ApiClient14password_grant0s0_0Be_
FNDA:0,_RNCNCNvXs_NtNtNtCscP9pq2ikS3v_12rust_backend14infrastructure5auth06clientNtB8_18HttpAuth0ApiClientNtNtBa_6traits14Auth0ApiClient14password_grant0s1_0Be_
FNDA:0,_RNCNCNvXs_NtNtNtCscP9pq2ikS3v_12rust_backend14infrastructure5auth06clientNtB8_18HttpAuth0ApiClientNtNtBa_6traits14Auth0ApiClient14password_grant0s2_0Be_
FNDA:0,_RNCNCNvXs_NtNtNtCscP9pq2ikS3v_12rust_backend14infrastructure5auth06clientNtB8_18HttpAuth0ApiClientNtNtBa_6traits14Auth0ApiClient14password_grant0s_0Be_
FNDA:1,_RNCNCNvXs_NtNtNtCscP9pq2ikS3v_12rust_backend14infrastructure5auth06clientNtB8_18HttpAuth0ApiClientNtNtBa_6traits14Auth0ApiClient6signup00Be_
FNDA:0,_RNCNCNvXs_NtNtNtCscP9pq2ikS3v_12rust_backend14infrastructure5auth06clientNtB8_18HttpAuth0ApiClientNtNtBa_6traits14Auth0ApiClient6signup0s0_0Be_
FNDA:0,_RNCNCNvXs_NtNtNtCscP9pq2ikS3v_12rust_backend14infrastructure5auth06clientNtB8_18HttpAuth0ApiClientNtNtBa_6traits14Auth0ApiClient6signup0s1_0Be_
FNDA:0,_RNCNCNvXs_NtNtNtCscP9pq2ikS3v_12rust_backend14infrastructure5auth06clientNtB8_18HttpAuth0ApiClientNtNtBa_6traits14Auth0ApiClient6signup0s_0Be_
FNDA:0,_RNCNvMNtNtNtCscP9pq2ikS3v_12rust_backend14infrastructure5auth06clientNtB4_18HttpAuth0ApiClient12handle_error0Ba_
FNDA:1,_RNCNvMNtNtNtCscP9pq2ikS3v_12rust_backend14infrastructure5auth06clientNtB4_18HttpAuth0ApiClient3new0Ba_
FNDA:0,_RNvMNtNtNtCscP9pq2ikS3v_12rust_backend14infrastructure5auth06clientNtB2_18HttpAuth0ApiClient10signup_url
FNDA:0,_RNvMNtNtNtCscP9pq2ikS3v_12rust_backend14infrastructure5auth06clientNtB2_18HttpAuth0ApiClient12handle_error
FNDA:0,_RNvMNtNtNtCscP9pq2ikS3v_12rust_backend14infrastructure5auth06clientNtB2_18HttpAuth0ApiClient15oauth_token_url
FNDA:2,_RNvMNtNtNtCscP9pq2ikS3v_12rust_backend14infrastructure5auth06clientNtB2_18HttpAuth0ApiClient3new
FNDA:0,_RNvMNtNtNtCscP9pq2ikS3v_12rust_backend14infrastructure5auth06clientNtB2_18HttpAuth0ApiClient6domain
FNDA:0,_RNvXs0_NtNtNtCscP9pq2ikS3v_12rust_backend14infrastructure5auth06clientNtB5_22DisabledAuth0ApiClientNtNtB7_6traits14Auth0ApiClient14password_grant
FNDA:2,_RNvXs0_NtNtNtCscP9pq2ikS3v_12rust_backend14infrastructure5auth06clientNtB5_22DisabledAuth0ApiClientNtNtB7_6traits14Auth0ApiClient6signup
FNDA:0,_RNvXs_NtNtNtCscP9pq2ikS3v_12rust_backend14infrastructure5auth06clientNtB4_18HttpAuth0ApiClientNtNtB6_6traits14Auth0ApiClient14password_grant
FNDA:1,_RNvXs_NtNtNtCscP9pq2ikS3v_12rust_backend14infrastructure5auth06clientNtB4_18HttpAuth0ApiClientNtNtB6_6traits14Auth0ApiClient6signup
FNDA:1,_RNvMNtNtNtCs4kTbYauoumE_12rust_backend14infrastructure5auth06clientNtB2_18HttpAuth0ApiClient10signup_url
FNDA:2,_RNvMNtNtNtCs4kTbYauoumE_12rust_backend14infrastructure5auth06clientNtB2_18HttpAuth0ApiClient12handle_error
FNDA:1,_RNvMNtNtNtCs4kTbYauoumE_12rust_backend14infrastructure5auth06clientNtB2_18HttpAuth0ApiClient15oauth_token_url
FNDA:4,_RNvMNtNtNtCs4kTbYauoumE_12rust_backend14infrastructure5auth06clientNtB2_18HttpAuth0ApiClient3new
FNDA:2,_RNvMNtNtNtCs4kTbYauoumE_12rust_backend14infrastructure5auth06clientNtB2_18HttpAuth0ApiClient6domain
FNDA:1,_RNvXs0_NtNtNtCs4kTbYauoumE_12rust_backend14infrastructure5auth06clientNtB5_22DisabledAuth0ApiClientNtNtB7_6traits14Auth0ApiClient14password_grant
FNDA:1,_RNvXs0_NtNtNtCs4kTbYauoumE_12rust_backend14infrastructure5auth06clientNtB5_22DisabledAuth0ApiClientNtNtB7_6traits14Auth0ApiClient6signup
FNDA:0,_RNCNCNvXs_NtNtNtCs4kTbYauoumE_12rust_backend14infrastructure5auth06clientNtB8_18HttpAuth0ApiClientNtNtBa_6traits14Auth0ApiClient14password_grant00Be_
FNDA:0,_RNCNCNvXs_NtNtNtCs4kTbYauoumE_12rust_backend14infrastructure5auth06clientNtB8_18HttpAuth0ApiClientNtNtBa_6traits14Auth0ApiClient14password_grant0s0_0Be_
FNDA:0,_RNCNCNvXs_NtNtNtCs4kTbYauoumE_12rust_backend14infrastructure5auth06clientNtB8_18HttpAuth0ApiClientNtNtBa_6traits14Auth0ApiClient14password_grant0s1_0Be_
FNDA:0,_RNCNCNvXs_NtNtNtCs4kTbYauoumE_12rust_backend14infrastructure5auth06clientNtB8_18HttpAuth0ApiClientNtNtBa_6traits14Auth0ApiClient14password_grant0s2_0Be_
FNDA:0,_RNCNCNvXs_NtNtNtCs4kTbYauoumE_12rust_backend14infrastructure5auth06clientNtB8_18HttpAuth0ApiClientNtNtBa_6traits14Auth0ApiClient14password_grant0s_0Be_
FNDA:0,_RNCNCNvXs_NtNtNtCs4kTbYauoumE_12rust_backend14infrastructure5auth06clientNtB8_18HttpAuth0ApiClientNtNtBa_6traits14Auth0ApiClient6signup00Be_
FNDA:0,_RNCNCNvXs_NtNtNtCs4kTbYauoumE_12rust_backend14infrastructure5auth06clientNtB8_18HttpAuth0ApiClientNtNtBa_6traits14Auth0ApiClient6signup0s0_0Be_
FNDA:0,_RNCNCNvXs_NtNtNtCs4kTbYauoumE_12rust_backend14infrastructure5auth06clientNtB8_18HttpAuth0ApiClientNtNtBa_6traits14Auth0ApiClient6signup0s1_0Be_
FNDA:0,_RNCNCNvXs_NtNtNtCs4kTbYauoumE_12rust_backend14infrastructure5auth06clientNtB8_18HttpAuth0ApiClientNtNtBa_6traits14Auth0ApiClient6signup0s_0Be_
FNDA:0,_RNvXs_NtNtNtCs4kTbYauoumE_12rust_backend14infrastructure5auth06clientNtB4_18HttpAuth0ApiClientNtNtB6_6traits14Auth0ApiClient14password_grant
FNDA:0,_RNvXs_NtNtNtCs4kTbYauoumE_12rust_backend14infrastructure5auth06clientNtB4_18HttpAuth0ApiClientNtNtB6_6traits14Auth0ApiClient6signup
FNDA:2,_RNCNvMNtNtNtCs4kTbYauoumE_12rust_backend14infrastructure5auth06clientNtB4_18HttpAuth0ApiClient12handle_error0Ba_
FNDA:3,_RNCNvMNtNtNtCs4kTbYauoumE_12rust_backend14infrastructure5auth06clientNtB4_18HttpAuth0ApiClient3new0Ba_
FNF:20
FNH:11
DA:31,6
DA:33,6
DA:34,6
DA:35,6
DA:36,6
DA:37,6
DA:38,6
DA:40,6
DA:41,2
DA:42,2
DA:43,2
DA:44,4
DA:46,4
DA:48,4
DA:49,4
DA:50,4
DA:51,4
DA:52,6
DA:54,2
DA:55,2
DA:56,2
DA:57,2
DA:58,2
DA:59,2
DA:61,1
DA:62,1
DA:63,1
DA:65,1
DA:66,1
DA:67,1
DA:69,2
DA:70,2
DA:73,2
DA:74,1
DA:75,1
DA:78,1
DA:80,0
DA:86,1
DA:90,1
DA:94,1
DA:95,0
DA:96,0
DA:97,0
DA:98,1
DA:99,1
DA:100,1
DA:101,1
DA:102,0
DA:107,2
DA:108,2
DA:118,1
DA:124,1
DA:125,1
DA:126,1
DA:133,0
DA:145,0
DA:146,0
DA:148,0
DA:151,0
DA:152,0
DA:158,0
DA:159,0
DA:160,0
DA:161,0
DA:162,1
DA:164,0
DA:166,0
DA:167,0
DA:168,0
DA:169,0
DA:170,0
DA:171,0
DA:173,0
DA:192,0
DA:193,0
DA:195,0
DA:198,0
DA:199,0
DA:205,0
DA:206,0
DA:207,0
DA:208,0
DA:209,0
DA:222,3
DA:228,3
DA:230,1
DA:236,1
BRF:0
BRH:0
LF:89
LH:56
end_of_record
SF:/Users/mykolborghese/rust-backend/src/infrastructure/auth0/db.rs
FN:163,_RNCNCNvMNtNtNtCscP9pq2ikS3v_12rust_backend14infrastructure5auth02dbNtB6_13Auth0DbClient14password_grant00Bc_
FN:204,_RNCNCNvMNtNtNtCscP9pq2ikS3v_12rust_backend14infrastructure5auth02dbNtB6_13Auth0DbClient14password_grant0s0_0Bc_
FN:224,_RNCNCNvMNtNtNtCscP9pq2ikS3v_12rust_backend14infrastructure5auth02dbNtB6_13Auth0DbClient14password_grant0s1_0Bc_
FN:195,_RNCNCNvMNtNtNtCscP9pq2ikS3v_12rust_backend14infrastructure5auth02dbNtB6_13Auth0DbClient14password_grant0s_0Bc_
FN:64,_RNCNCNvMNtNtNtCscP9pq2ikS3v_12rust_backend14infrastructure5auth02dbNtB6_13Auth0DbClient6signup00Bc_
FN:88,_RNCNCNvMNtNtNtCscP9pq2ikS3v_12rust_backend14infrastructure5auth02dbNtB6_13Auth0DbClient6signup0s0_0Bc_
FN:114,_RNCNCNvMNtNtNtCscP9pq2ikS3v_12rust_backend14infrastructure5auth02dbNtB6_13Auth0DbClient6signup0s1_0Bc_
FN:123,_RNCNCNvMNtNtNtCscP9pq2ikS3v_12rust_backend14infrastructure5auth02dbNtB6_13Auth0DbClient6signup0s2_0Bc_
FN:142,_RNCNCNvMNtNtNtCscP9pq2ikS3v_12rust_backend14infrastructure5auth02dbNtB6_13Auth0DbClient6signup0s3_0Bc_
FN:74,_RNCNCNvMNtNtNtCscP9pq2ikS3v_12rust_backend14infrastructure5auth02dbNtB6_13Auth0DbClient6signup0s_0Bc_
FN:157,_RNCNvMNtNtNtCscP9pq2ikS3v_12rust_backend14infrastructure5auth02dbNtB4_13Auth0DbClient14password_grant0Ba_
FN:58,_RNCNvMNtNtNtCscP9pq2ikS3v_12rust_backend14infrastructure5auth02dbNtB4_13Auth0DbClient6signup0Ba_
FN:45,_RNCNvMNtNtNtCscP9pq2ikS3v_12rust_backend14infrastructure5auth02dbNtB4_13Auth0DbClient8base_url0Ba_
FN:34,_RNvMNtNtNtCscP9pq2ikS3v_12rust_backend14infrastructure5auth02dbNtB2_13Auth0DbClient10connection
FN:154,_RNvMNtNtNtCscP9pq2ikS3v_12rust_backend14infrastructure5auth02dbNtB2_13Auth0DbClient14password_grant
FN:26,_RNvMNtNtNtCscP9pq2ikS3v_12rust_backend14infrastructure5auth02dbNtB2_13Auth0DbClient3new
FN:58,_RNvMNtNtNtCscP9pq2ikS3v_12rust_backend14infrastructure5auth02dbNtB2_13Auth0DbClient6signup
FN:39,_RNvMNtNtNtCscP9pq2ikS3v_12rust_backend14infrastructure5auth02dbNtB2_13Auth0DbClient8base_url
FN:259,_RNvNtNtNtNtCs4kTbYauoumE_12rust_backend14infrastructure5auth02db5testss_57test_signup_fails_when_domain_missing_before_network_call
FN:237,_RNvNtNtNtNtCs4kTbYauoumE_12rust_backend14infrastructure5auth02db5testss_60test_signup_fails_when_client_id_missing_before_network_call
FN:303,_RNvNtNtNtNtCs4kTbYauoumE_12rust_backend14infrastructure5auth02db5testss_65test_password_grant_fails_when_domain_missing_before_network_call
FN:281,_RNvNtNtNtNtCs4kTbYauoumE_12rust_backend14infrastructure5auth02db5testss_68test_password_grant_fails_when_client_id_missing_before_network_call
FN:259,_RNCNvNtNtNtNtCs4kTbYauoumE_12rust_backend14infrastructure5auth02db5testss_57test_signup_fails_when_domain_missing_before_network_call0Bb_
FN:237,_RNCNvNtNtNtNtCs4kTbYauoumE_12rust_backend14infrastructure5auth02db5testss_60test_signup_fails_when_client_id_missing_before_network_call0Bb_
FN:303,_RNCNvNtNtNtNtCs4kTbYauoumE_12rust_backend14infrastructure5auth02db5testss_65test_password_grant_fails_when_domain_missing_before_network_call0Bb_
FN:281,_RNCNvNtNtNtNtCs4kTbYauoumE_12rust_backend14infrastructure5auth02db5testss_68test_password_grant_fails_when_client_id_missing_before_network_call0Bb_
FN:34,_RNvMNtNtNtCs4kTbYauoumE_12rust_backend14infrastructure5auth02dbNtB2_13Auth0DbClient10connection
FN:154,_RNvMNtNtNtCs4kTbYauoumE_12rust_backend14infrastructure5auth02dbNtB2_13Auth0DbClient14password_grant
FN:26,_RNvMNtNtNtCs4kTbYauoumE_12rust_backend14infrastructure5auth02dbNtB2_13Auth0DbClient3new
FN:58,_RNvMNtNtNtCs4kTbYauoumE_12rust_backend14infrastructure5auth02dbNtB2_13Auth0DbClient6signup
FN:39,_RNvMNtNtNtCs4kTbYauoumE_12rust_backend14infrastructure5auth02dbNtB2_13Auth0DbClient8base_url
FN:163,_RNCNCNvMNtNtNtCs4kTbYauoumE_12rust_backend14infrastructure5auth02dbNtB6_13Auth0DbClient14password_grant00Bc_
FN:204,_RNCNCNvMNtNtNtCs4kTbYauoumE_12rust_backend14infrastructure5auth02dbNtB6_13Auth0DbClient14password_grant0s0_0Bc_
FN:224,_RNCNCNvMNtNtNtCs4kTbYauoumE_12rust_backend14infrastructure5auth02dbNtB6_13Auth0DbClient14password_grant0s1_0Bc_
FN:195,_RNCNCNvMNtNtNtCs4kTbYauoumE_12rust_backend14infrastructure5auth02dbNtB6_13Auth0DbClient14password_grant0s_0Bc_
FN:64,_RNCNCNvMNtNtNtCs4kTbYauoumE_12rust_backend14infrastructure5auth02dbNtB6_13Auth0DbClient6signup00Bc_
FN:88,_RNCNCNvMNtNtNtCs4kTbYauoumE_12rust_backend14infrastructure5auth02dbNtB6_13Auth0DbClient6signup0s0_0Bc_
FN:114,_RNCNCNvMNtNtNtCs4kTbYauoumE_12rust_backend14infrastructure5auth02dbNtB6_13Auth0DbClient6signup0s1_0Bc_
FN:123,_RNCNCNvMNtNtNtCs4kTbYauoumE_12rust_backend14infrastructure5auth02dbNtB6_13Auth0DbClient6signup0s2_0Bc_
FN:142,_RNCNCNvMNtNtNtCs4kTbYauoumE_12rust_backend14infrastructure5auth02dbNtB6_13Auth0DbClient6signup0s3_0Bc_
FN:74,_RNCNCNvMNtNtNtCs4kTbYauoumE_12rust_backend14infrastructure5auth02dbNtB6_13Auth0DbClient6signup0s_0Bc_
FN:157,_RNCNvMNtNtNtCs4kTbYauoumE_12rust_backend14infrastructure5auth02dbNtB4_13Auth0DbClient14password_grant0Ba_
FN:58,_RNCNvMNtNtNtCs4kTbYauoumE_12rust_backend14infrastructure5auth02dbNtB4_13Auth0DbClient6signup0Ba_
FN:45,_RNCNvMNtNtNtCs4kTbYauoumE_12rust_backend14infrastructure5auth02dbNtB4_13Auth0DbClient8base_url0Ba_
FNDA:0,_RNCNCNvMNtNtNtCscP9pq2ikS3v_12rust_backend14infrastructure5auth02dbNtB6_13Auth0DbClient14password_grant00Bc_
FNDA:0,_RNCNCNvMNtNtNtCscP9pq2ikS3v_12rust_backend14infrastructure5auth02dbNtB6_13Auth0DbClient14password_grant0s0_0Bc_
FNDA:0,_RNCNCNvMNtNtNtCscP9pq2ikS3v_12rust_backend14infrastructure5auth02dbNtB6_13Auth0DbClient14password_grant0s1_0Bc_
FNDA:0,_RNCNCNvMNtNtNtCscP9pq2ikS3v_12rust_backend14infrastructure5auth02dbNtB6_13Auth0DbClient14password_grant0s_0Bc_
FNDA:0,_RNCNCNvMNtNtNtCscP9pq2ikS3v_12rust_backend14infrastructure5auth02dbNtB6_13Auth0DbClient6signup00Bc_
FNDA:0,_RNCNCNvMNtNtNtCscP9pq2ikS3v_12rust_backend14infrastructure5auth02dbNtB6_13Auth0DbClient6signup0s0_0Bc_
FNDA:0,_RNCNCNvMNtNtNtCscP9pq2ikS3v_12rust_backend14infrastructure5auth02dbNtB6_13Auth0DbClient6signup0s1_0Bc_
FNDA:0,_RNCNCNvMNtNtNtCscP9pq2ikS3v_12rust_backend14infrastructure5auth02dbNtB6_13Auth0DbClient6signup0s2_0Bc_
FNDA:0,_RNCNCNvMNtNtNtCscP9pq2ikS3v_12rust_backend14infrastructure5auth02dbNtB6_13Auth0DbClient6signup0s3_0Bc_
FNDA:0,_RNCNCNvMNtNtNtCscP9pq2ikS3v_12rust_backend14infrastructure5auth02dbNtB6_13Auth0DbClient6signup0s_0Bc_
FNDA:0,_RNCNvMNtNtNtCscP9pq2ikS3v_12rust_backend14infrastructure5auth02dbNtB4_13Auth0DbClient14password_grant0Ba_
FNDA:0,_RNCNvMNtNtNtCscP9pq2ikS3v_12rust_backend14infrastructure5auth02dbNtB4_13Auth0DbClient6signup0Ba_
FNDA:0,_RNCNvMNtNtNtCscP9pq2ikS3v_12rust_backend14infrastructure5auth02dbNtB4_13Auth0DbClient8base_url0Ba_
FNDA:0,_RNvMNtNtNtCscP9pq2ikS3v_12rust_backend14infrastructure5auth02dbNtB2_13Auth0DbClient10connection
FNDA:0,_RNvMNtNtNtCscP9pq2ikS3v_12rust_backend14infrastructure5auth02dbNtB2_13Auth0DbClient14password_grant
FNDA:0,_RNvMNtNtNtCscP9pq2ikS3v_12rust_backend14infrastructure5auth02dbNtB2_13Auth0DbClient3new
FNDA:0,_RNvMNtNtNtCscP9pq2ikS3v_12rust_backend14infrastructure5auth02dbNtB2_13Auth0DbClient6signup
FNDA:0,_RNvMNtNtNtCscP9pq2ikS3v_12rust_backend14infrastructure5auth02dbNtB2_13Auth0DbClient8base_url
FNDA:1,_RNvNtNtNtNtCs4kTbYauoumE_12rust_backend14infrastructure5auth02db5testss_57test_signup_fails_when_domain_missing_before_network_call
FNDA:1,_RNvNtNtNtNtCs4kTbYauoumE_12rust_backend14infrastructure5auth02db5testss_60test_signup_fails_when_client_id_missing_before_network_call
FNDA:1,_RNvNtNtNtNtCs4kTbYauoumE_12rust_backend14infrastructure5auth02db5testss_65test_password_grant_fails_when_domain_missing_before_network_call
FNDA:1,_RNvNtNtNtNtCs4kTbYauoumE_12rust_backend14infrastructure5auth02db5testss_68test_password_grant_fails_when_client_id_missing_before_network_call
FNDA:1,_RNCNvNtNtNtNtCs4kTbYauoumE_12rust_backend14infrastructure5auth02db5testss_57test_signup_fails_when_domain_missing_before_network_call0Bb_
FNDA:1,_RNCNvNtNtNtNtCs4kTbYauoumE_12rust_backend14infrastructure5auth02db5testss_60test_signup_fails_when_client_id_missing_before_network_call0Bb_
FNDA:1,_RNCNvNtNtNtNtCs4kTbYauoumE_12rust_backend14infrastructure5auth02db5testss_65test_password_grant_fails_when_domain_missing_before_network_call0Bb_
FNDA:1,_RNCNvNtNtNtNtCs4kTbYauoumE_12rust_backend14infrastructure5auth02db5testss_68test_password_grant_fails_when_client_id_missing_before_network_call0Bb_
FNDA:0,_RNvMNtNtNtCs4kTbYauoumE_12rust_backend14infrastructure5auth02dbNtB2_13Auth0DbClient10connection
FNDA:2,_RNvMNtNtNtCs4kTbYauoumE_12rust_backend14infrastructure5auth02dbNtB2_13Auth0DbClient14password_grant
FNDA:4,_RNvMNtNtNtCs4kTbYauoumE_12rust_backend14infrastructure5auth02dbNtB2_13Auth0DbClient3new
FNDA:2,_RNvMNtNtNtCs4kTbYauoumE_12rust_backend14infrastructure5auth02dbNtB2_13Auth0DbClient6signup
FNDA:2,_RNvMNtNtNtCs4kTbYauoumE_12rust_backend14infrastructure5auth02dbNtB2_13Auth0DbClient8base_url
FNDA:1,_RNCNCNvMNtNtNtCs4kTbYauoumE_12rust_backend14infrastructure5auth02dbNtB6_13Auth0DbClient14password_grant00Bc_
FNDA:0,_RNCNCNvMNtNtNtCs4kTbYauoumE_12rust_backend14infrastructure5auth02dbNtB6_13Auth0DbClient14password_grant0s0_0Bc_
FNDA:0,_RNCNCNvMNtNtNtCs4kTbYauoumE_12rust_backend14infrastructure5auth02dbNtB6_13Auth0DbClient14password_grant0s1_0Bc_
FNDA:0,_RNCNCNvMNtNtNtCs4kTbYauoumE_12rust_backend14infrastructure5auth02dbNtB6_13Auth0DbClient14password_grant0s_0Bc_
FNDA:1,_RNCNCNvMNtNtNtCs4kTbYauoumE_12rust_backend14infrastructure5auth02dbNtB6_13Auth0DbClient6signup00Bc_
FNDA:0,_RNCNCNvMNtNtNtCs4kTbYauoumE_12rust_backend14infrastructure5auth02dbNtB6_13Auth0DbClient6signup0s0_0Bc_
FNDA:0,_RNCNCNvMNtNtNtCs4kTbYauoumE_12rust_backend14infrastructure5auth02dbNtB6_13Auth0DbClient6signup0s1_0Bc_
FNDA:0,_RNCNCNvMNtNtNtCs4kTbYauoumE_12rust_backend14infrastructure5auth02dbNtB6_13Auth0DbClient6signup0s2_0Bc_
FNDA:0,_RNCNCNvMNtNtNtCs4kTbYauoumE_12rust_backend14infrastructure5auth02dbNtB6_13Auth0DbClient6signup0s3_0Bc_
FNDA:0,_RNCNCNvMNtNtNtCs4kTbYauoumE_12rust_backend14infrastructure5auth02dbNtB6_13Auth0DbClient6signup0s_0Bc_
FNDA:2,_RNCNvMNtNtNtCs4kTbYauoumE_12rust_backend14infrastructure5auth02dbNtB4_13Auth0DbClient14password_grant0Ba_
FNDA:2,_RNCNvMNtNtNtCs4kTbYauoumE_12rust_backend14infrastructure5auth02dbNtB4_13Auth0DbClient6signup0Ba_
FNDA:2,_RNCNvMNtNtNtCs4kTbYauoumE_12rust_backend14infrastructure5auth02dbNtB4_13Auth0DbClient8base_url0Ba_
FNF:26
FNH:17
DA:26,4
DA:27,4
DA:28,4
DA:29,4
DA:30,4
DA:31,4
DA:34,0
DA:35,0
DA:36,0
DA:39,2
DA:40,0
DA:41,2
DA:42,2
DA:43,2
DA:44,2
DA:45,2
DA:46,2
DA:47,2
DA:48,0
DA:49,2
DA:58,2
DA:59,1
DA:60,2
DA:61,2
DA:62,2
DA:63,2
DA:64,1
DA:65,1
DA:66,1
DA:68,1
DA:71,0
DA:72,0
DA:73,0
DA:74,0
DA:76,0
DA:77,0
DA:78,0
DA:79,0
DA:80,0
DA:83,0
DA:84,0
DA:85,0
DA:87,0
DA:88,0
DA:89,0
DA:90,0
DA:91,0
DA:93,0
DA:94,0
DA:95,0
DA:97,0
DA:98,0
DA:99,0
DA:101,0
DA:102,0
DA:103,0
DA:105,0
DA:106,0
DA:107,0
DA:108,0
DA:109,0
DA:110,0
DA:111,0
DA:112,0
DA:113,0
DA:114,0
DA:115,0
DA:116,0
DA:118,0
DA:119,0
DA:120,0
DA:121,0
DA:122,0
DA:123,0
DA:125,0
DA:126,0
DA:127,0
DA:128,0
DA:129,0
DA:130,0
DA:131,0
DA:132,0
DA:133,0
DA:134,0
DA:136,0
DA:138,0
DA:139,0
DA:140,0
DA:141,0
DA:142,0
DA:143,0
DA:144,0
DA:145,2
DA:154,2
DA:155,2
DA:156,2
DA:157,2
DA:158,1
DA:159,2
DA:160,2
DA:161,2
DA:162,2
DA:163,1
DA:164,1
DA:165,1
DA:167,1
DA:169,0
DA:170,0
DA:171,0
DA:172,0
DA:176,0
DA:178,0
DA:179,0
DA:180,0
DA:182,0
DA:183,0
DA:184,0
DA:186,0
DA:187,0
DA:188,0
DA:189,0
DA:190,0
DA:191,0
DA:192,0
DA:193,0
DA:194,0
DA:195,0
DA:196,0
DA:197,0
DA:199,0
DA:200,0
DA:201,0
DA:202,0
DA:203,0
DA:204,0
DA:206,0
DA:207,0
DA:208,0
DA:209,0
DA:210,0
DA:211,0
DA:212,0
DA:213,0
DA:214,0
DA:215,0
DA:216,0
DA:218,0
DA:220,0
DA:221,0
DA:222,0
DA:223,0
DA:224,0
DA:225,0
DA:226,0
DA:227,2
DA:237,1
DA:238,1
DA:239,1
DA:240,1
DA:241,1
DA:242,1
DA:244,1
DA:245,1
DA:246,1
DA:247,1
DA:248,1
DA:249,1
DA:251,1
DA:252,1
DA:253,1
DA:254,1
DA:255,1
DA:256,1
DA:259,1
DA:260,1
DA:261,1
DA:262,1
DA:263,1
DA:264,1
DA:266,1
DA:267,1
DA:268,1
DA:269,1
DA:270,1
DA:271,1
DA:273,1
DA:274,1
DA:275,1
DA:276,1
DA:277,1
DA:278,1
DA:281,1
DA:282,1
DA:283,1
DA:284,1
DA:285,1
DA:286,1
DA:288,1
DA:289,1
DA:290,1
DA:291,1
DA:292,1
DA:293,1
DA:295,1
DA:296,1
DA:297,1
DA:298,1
DA:299,1
DA:300,1
DA:303,1
DA:304,1
DA:305,1
DA:306,1
DA:307,1
DA:308,1
DA:310,1
DA:311,1
DA:312,1
DA:313,1
DA:314,1
DA:315,1
DA:317,1
DA:318,1
DA:319,1
DA:320,1
DA:321,1
DA:322,1
BRF:0
BRH:0
LF:259
LH:137
end_of_record
SF:/Users/mykolborghese/rust-backend/src/infrastructure/auth0/dtos.rs
FN:75,_RNvMNtNtNtCscP9pq2ikS3v_12rust_backend14infrastructure5auth04dtosNtB2_18Auth0ErrorResponse12to_app_error
FN:54,_RNvMNtNtNtCscP9pq2ikS3v_12rust_backend14infrastructure5auth04dtosNtB2_18Auth0ErrorResponse13code_or_error
FN:62,_RNvMNtNtNtCscP9pq2ikS3v_12rust_backend14infrastructure5auth04dtosNtB2_18Auth0ErrorResponse32description_or_error_description
FN:126,_RNvNtNtNtNtCs4kTbYauoumE_12rust_backend14infrastructure5auth04dtos5testss_51test_signup_response_deserialization_failure_branch
FN:137,_RNvNtNtNtNtCs4kTbYauoumE_12rust_backend14infrastructure5auth04dtos5testss_59test_password_grant_response_deserialization_failure_branch
FN:75,_RNvMNtNtNtCs4kTbYauoumE_12rust_backend14infrastructure5auth04dtosNtB2_18Auth0ErrorResponse12to_app_error
FN:54,_RNvMNtNtNtCs4kTbYauoumE_12rust_backend14infrastructure5auth04dtosNtB2_18Auth0ErrorResponse13code_or_error
FN:62,_RNvMNtNtNtCs4kTbYauoumE_12rust_backend14infrastructure5auth04dtosNtB2_18Auth0ErrorResponse32description_or_error_description
FNDA:0,_RNvMNtNtNtCscP9pq2ikS3v_12rust_backend14infrastructure5auth04dtosNtB2_18Auth0ErrorResponse12to_app_error
FNDA:0,_RNvMNtNtNtCscP9pq2ikS3v_12rust_backend14infrastructure5auth04dtosNtB2_18Auth0ErrorResponse13code_or_error
FNDA:0,_RNvMNtNtNtCscP9pq2ikS3v_12rust_backend14infrastructure5auth04dtosNtB2_18Auth0ErrorResponse32description_or_error_description
FNDA:1,_RNvNtNtNtNtCs4kTbYauoumE_12rust_backend14infrastructure5auth04dtos5testss_51test_signup_response_deserialization_failure_branch
FNDA:1,_RNvNtNtNtNtCs4kTbYauoumE_12rust_backend14infrastructure5auth04dtos5testss_59test_password_grant_response_deserialization_failure_branch
FNDA:10,_RNvMNtNtNtCs4kTbYauoumE_12rust_backend14infrastructure5auth04dtosNtB2_18Auth0ErrorResponse12to_app_error
FNDA:10,_RNvMNtNtNtCs4kTbYauoumE_12rust_backend14infrastructure5auth04dtosNtB2_18Auth0ErrorResponse13code_or_error
FNDA:11,_RNvMNtNtNtCs4kTbYauoumE_12rust_backend14infrastructure5auth04dtosNtB2_18Auth0ErrorResponse32description_or_error_description
FNF:5
FNH:5
DA:54,10
DA:55,10
DA:56,0
DA:58,10
DA:60,10
DA:62,11
DA:63,11
DA:64,0
DA:65,0
DA:67,0
DA:70,11
DA:72,11
DA:75,10
DA:76,10
DA:77,10
DA:80,10
DA:85,10
DA:86,10
DA:87,2
DA:90,8
DA:91,7
DA:92,7
DA:93,7
DA:94,1
DA:97,7
DA:98,1
DA:101,6
DA:102,2
DA:105,4
DA:107,3
DA:108,0
DA:109,0
DA:110,0
DA:111,1
DA:112,1
DA:113,1
DA:114,1
DA:115,2
DA:118,10
DA:126,1
DA:127,1
DA:128,1
DA:129,1
DA:132,1
DA:133,1
DA:134,1
DA:137,1
DA:138,1
DA:139,1
DA:140,1
DA:143,1
DA:144,1
DA:145,1
BRF:0
BRH:0
LF:53
LH:46
end_of_record
SF:/Users/mykolborghese/rust-backend/src/infrastructure/auth0/requests.rs
FN:109,_RNvMs0_NtNtNtCscP9pq2ikS3v_12rust_backend14infrastructure5auth08requestsNtB5_13SignupRequest13with_metadata
FN:103,_RNvMs0_NtNtNtCscP9pq2ikS3v_12rust_backend14infrastructure5auth08requestsNtB5_13SignupRequest13with_username
FN:97,_RNvMs0_NtNtNtCscP9pq2ikS3v_12rust_backend14infrastructure5auth08requestsNtB5_13SignupRequest15with_connection
FN:115,_RNvMs0_NtNtNtCscP9pq2ikS3v_12rust_backend14infrastructure5auth08requestsNtB5_13SignupRequest15with_given_name
FN:121,_RNvMs0_NtNtNtCscP9pq2ikS3v_12rust_backend14infrastructure5auth08requestsNtB5_13SignupRequest16with_family_name
FN:83,_RNvMs0_NtNtNtCscP9pq2ikS3v_12rust_backend14infrastructure5auth08requestsNtB5_13SignupRequest3new
FN:127,_RNvMs0_NtNtNtCscP9pq2ikS3v_12rust_backend14infrastructure5auth08requestsNtB5_13SignupRequest9with_name
FN:175,_RNvMs2_NtNtNtCscP9pq2ikS3v_12rust_backend14infrastructure5auth08requestsNtB5_20PasswordGrantRequest13with_audience
FN:181,_RNvMs2_NtNtNtCscP9pq2ikS3v_12rust_backend14infrastructure5auth08requestsNtB5_20PasswordGrantRequest15with_connection
FN:164,_RNvMs2_NtNtNtCscP9pq2ikS3v_12rust_backend14infrastructure5auth08requestsNtB5_20PasswordGrantRequest3new
FN:17,_RNvXNtNtNtCscP9pq2ikS3v_12rust_backend14infrastructure5auth08requestsNtB2_18Auth0SignupRequestNtNtCsezyhsC6CBT9_4core3fmt5Debug3fmt
FN:151,_RNvXs1_NtNtNtCscP9pq2ikS3v_12rust_backend14infrastructure5auth08requestsNtB5_20PasswordGrantRequestNtNtCsezyhsC6CBT9_4core3fmt5Debug3fmt
FN:42,_RNvXs_NtNtNtCscP9pq2ikS3v_12rust_backend14infrastructure5auth08requestsNtB4_25Auth0PasswordGrantRequestNtNtCsezyhsC6CBT9_4core3fmt5Debug3fmt
FN:109,_RNvMs0_NtNtNtCs4kTbYauoumE_12rust_backend14infrastructure5auth08requestsNtB5_13SignupRequest13with_metadata
FN:103,_RNvMs0_NtNtNtCs4kTbYauoumE_12rust_backend14infrastructure5auth08requestsNtB5_13SignupRequest13with_username
FN:97,_RNvMs0_NtNtNtCs4kTbYauoumE_12rust_backend14infrastructure5auth08requestsNtB5_13SignupRequest15with_connection
FN:115,_RNvMs0_NtNtNtCs4kTbYauoumE_12rust_backend14infrastructure5auth08requestsNtB5_13SignupRequest15with_given_name
FN:121,_RNvMs0_NtNtNtCs4kTbYauoumE_12rust_backend14infrastructure5auth08requestsNtB5_13SignupRequest16with_family_name
FN:83,_RNvMs0_NtNtNtCs4kTbYauoumE_12rust_backend14infrastructure5auth08requestsNtB5_13SignupRequest3new
FN:127,_RNvMs0_NtNtNtCs4kTbYauoumE_12rust_backend14infrastructure5auth08requestsNtB5_13SignupRequest9with_name
FN:175,_RNvMs2_NtNtNtCs4kTbYauoumE_12rust_backend14infrastructure5auth08requestsNtB5_20PasswordGrantRequest13with_audience
FN:181,_RNvMs2_NtNtNtCs4kTbYauoumE_12rust_backend14infrastructure5auth08requestsNtB5_20PasswordGrantRequest15with_connection
FN:164,_RNvMs2_NtNtNtCs4kTbYauoumE_12rust_backend14infrastructure5auth08requestsNtB5_20PasswordGrantRequest3new
FN:17,_RNvXNtNtNtCs4kTbYauoumE_12rust_backend14infrastructure5auth08requestsNtB2_18Auth0SignupRequestNtNtCsezyhsC6CBT9_4core3fmt5Debug3fmt
FN:151,_RNvXs1_NtNtNtCs4kTbYauoumE_12rust_backend14infrastructure5auth08requestsNtB5_20PasswordGrantRequestNtNtCsezyhsC6CBT9_4core3fmt5Debug3fmt
FN:42,_RNvXs_NtNtNtCs4kTbYauoumE_12rust_backend14infrastructure5auth08requestsNtB4_25Auth0PasswordGrantRequestNtNtCsezyhsC6CBT9_4core3fmt5Debug3fmt
FN:192,_RNvNtNtNtNtCs4kTbYauoumE_12rust_backend14infrastructure5auth08requests5testss_27test_signup_request_builder
FN:209,_RNvNtNtNtNtCs4kTbYauoumE_12rust_backend14infrastructure5auth08requests5testss_35test_password_grant_request_builder
FN:241,_RNvNtNtNtNtCs4kTbYauoumE_12rust_backend14infrastructure5auth08requests5testss_38test_signup_request_serialization_full
FN:229,_RNvNtNtNtNtCs4kTbYauoumE_12rust_backend14infrastructure5auth08requests5testss_41test_signup_request_serialization_minimal
FN:276,_RNvNtNtNtNtCs4kTbYauoumE_12rust_backend14infrastructure5auth08requests5testss_62test_password_grant_request_serialization_with_optional_fields
FN:263,_RNvNtNtNtNtCs4kTbYauoumE_12rust_backend14infrastructure5auth08requests5testss_65test_password_grant_request_serialization_without_optional_fields
FNDA:0,_RNvMs0_NtNtNtCscP9pq2ikS3v_12rust_backend14infrastructure5auth08requestsNtB5_13SignupRequest13with_metadata
FNDA:0,_RNvMs0_NtNtNtCscP9pq2ikS3v_12rust_backend14infrastructure5auth08requestsNtB5_13SignupRequest13with_username
FNDA:0,_RNvMs0_NtNtNtCscP9pq2ikS3v_12rust_backend14infrastructure5auth08requestsNtB5_13SignupRequest15with_connection
FNDA:0,_RNvMs0_NtNtNtCscP9pq2ikS3v_12rust_backend14infrastructure5auth08requestsNtB5_13SignupRequest15with_given_name
FNDA:0,_RNvMs0_NtNtNtCscP9pq2ikS3v_12rust_backend14infrastructure5auth08requestsNtB5_13SignupRequest16with_family_name
FNDA:0,_RNvMs0_NtNtNtCscP9pq2ikS3v_12rust_backend14infrastructure5auth08requestsNtB5_13SignupRequest3new
FNDA:0,_RNvMs0_NtNtNtCscP9pq2ikS3v_12rust_backend14infrastructure5auth08requestsNtB5_13SignupRequest9with_name
FNDA:0,_RNvMs2_NtNtNtCscP9pq2ikS3v_12rust_backend14infrastructure5auth08requestsNtB5_20PasswordGrantRequest13with_audience
FNDA:0,_RNvMs2_NtNtNtCscP9pq2ikS3v_12rust_backend14infrastructure5auth08requestsNtB5_20PasswordGrantRequest15with_connection
FNDA:0,_RNvMs2_NtNtNtCscP9pq2ikS3v_12rust_backend14infrastructure5auth08requestsNtB5_20PasswordGrantRequest3new
FNDA:0,_RNvXNtNtNtCscP9pq2ikS3v_12rust_backend14infrastructure5auth08requestsNtB2_18Auth0SignupRequestNtNtCsezyhsC6CBT9_4core3fmt5Debug3fmt
FNDA:0,_RNvXs1_NtNtNtCscP9pq2ikS3v_12rust_backend14infrastructure5auth08requestsNtB5_20PasswordGrantRequestNtNtCsezyhsC6CBT9_4core3fmt5Debug3fmt
FNDA:0,_RNvXs_NtNtNtCscP9pq2ikS3v_12rust_backend14infrastructure5auth08requestsNtB4_25Auth0PasswordGrantRequestNtNtCsezyhsC6CBT9_4core3fmt5Debug3fmt
FNDA:1,_RNvMs0_NtNtNtCs4kTbYauoumE_12rust_backend14infrastructure5auth08requestsNtB5_13SignupRequest13with_metadata
FNDA:2,_RNvMs0_NtNtNtCs4kTbYauoumE_12rust_backend14infrastructure5auth08requestsNtB5_13SignupRequest13with_username
FNDA:1,_RNvMs0_NtNtNtCs4kTbYauoumE_12rust_backend14infrastructure5auth08requestsNtB5_13SignupRequest15with_connection
FNDA:1,_RNvMs0_NtNtNtCs4kTbYauoumE_12rust_backend14infrastructure5auth08requestsNtB5_13SignupRequest15with_given_name
FNDA:1,_RNvMs0_NtNtNtCs4kTbYauoumE_12rust_backend14infrastructure5auth08requestsNtB5_13SignupRequest16with_family_name
FNDA:5,_RNvMs0_NtNtNtCs4kTbYauoumE_12rust_backend14infrastructure5auth08requestsNtB5_13SignupRequest3new
FNDA:2,_RNvMs0_NtNtNtCs4kTbYauoumE_12rust_backend14infrastructure5auth08requestsNtB5_13SignupRequest9with_name
FNDA:2,_RNvMs2_NtNtNtCs4kTbYauoumE_12rust_backend14infrastructure5auth08requestsNtB5_20PasswordGrantRequest13with_audience
FNDA:2,_RNvMs2_NtNtNtCs4kTbYauoumE_12rust_backend14infrastructure5auth08requestsNtB5_20PasswordGrantRequest15with_connection
FNDA:5,_RNvMs2_NtNtNtCs4kTbYauoumE_12rust_backend14infrastructure5auth08requestsNtB5_20PasswordGrantRequest3new
FNDA:0,_RNvXNtNtNtCs4kTbYauoumE_12rust_backend14infrastructure5auth08requestsNtB2_18Auth0SignupRequestNtNtCsezyhsC6CBT9_4core3fmt5Debug3fmt
FNDA:0,_RNvXs1_NtNtNtCs4kTbYauoumE_12rust_backend14infrastructure5auth08requestsNtB5_20PasswordGrantRequestNtNtCsezyhsC6CBT9_4core3fmt5Debug3fmt
FNDA:0,_RNvXs_NtNtNtCs4kTbYauoumE_12rust_backend14infrastructure5auth08requestsNtB4_25Auth0PasswordGrantRequestNtNtCsezyhsC6CBT9_4core3fmt5Debug3fmt
FNDA:1,_RNvNtNtNtNtCs4kTbYauoumE_12rust_backend14infrastructure5auth08requests5testss_27test_signup_request_builder
FNDA:1,_RNvNtNtNtNtCs4kTbYauoumE_12rust_backend14infrastructure5auth08requests5testss_35test_password_grant_request_builder
FNDA:1,_RNvNtNtNtNtCs4kTbYauoumE_12rust_backend14infrastructure5auth08requests5testss_38test_signup_request_serialization_full
FNDA:1,_RNvNtNtNtNtCs4kTbYauoumE_12rust_backend14infrastructure5auth08requests5testss_41test_signup_request_serialization_minimal
FNDA:1,_RNvNtNtNtNtCs4kTbYauoumE_12rust_backend14infrastructure5auth08requests5testss_62test_password_grant_request_serialization_with_optional_fields
FNDA:1,_RNvNtNtNtNtCs4kTbYauoumE_12rust_backend14infrastructure5auth08requests5testss_65test_password_grant_request_serialization_without_optional_fields
FNF:19
FNH:16
DA:17,0
DA:18,0
DA:19,0
DA:20,0
DA:21,0
DA:22,0
DA:23,0
DA:24,0
DA:25,0
DA:26,0
DA:42,0
DA:43,0
DA:44,0
DA:45,0
DA:46,0
DA:47,0
DA:48,0
DA:49,0
DA:50,0
DA:51,0
DA:83,5
DA:84,5
DA:85,5
DA:86,5
DA:87,5
DA:88,5
DA:89,5
DA:90,5
DA:91,5
DA:92,5
DA:93,5
DA:94,5
DA:97,1
DA:98,1
DA:99,1
DA:100,1
DA:103,2
DA:104,2
DA:105,2
DA:106,2
DA:109,1
DA:110,1
DA:111,1
DA:112,1
DA:115,1
DA:116,1
DA:117,1
DA:118,1
DA:121,1
DA:122,1
DA:123,1
DA:124,1
DA:127,2
DA:128,2
DA:129,2
DA:130,2
DA:151,0
DA:152,0
DA:153,0
DA:154,0
DA:155,0
DA:156,0
DA:157,0
DA:158,0
DA:159,0
DA:164,5
DA:165,5
DA:166,5
DA:167,5
DA:168,5
DA:169,5
DA:170,5
DA:171,5
DA:172,5
DA:175,2
DA:176,2
DA:177,2
DA:178,2
DA:181,2
DA:182,2
DA:183,2
DA:184,2
DA:192,1
DA:193,1
DA:194,1
DA:195,1
DA:196,1
DA:198,1
DA:199,1
DA:200,1
DA:202,1
DA:204,1
DA:205,1
DA:206,1
DA:209,1
DA:210,1
DA:211,1
DA:212,1
DA:213,1
DA:215,1
DA:216,1
DA:217,1
DA:218,1
DA:220,1
DA:222,1
DA:224,1
DA:226,1
DA:229,1
DA:230,1
DA:231,1
DA:233,1
DA:234,1
DA:235,1
DA:236,1
DA:237,1
DA:238,1
DA:241,1
DA:242,1
DA:243,1
DA:244,1
DA:245,1
DA:246,1
DA:248,1
DA:249,1
DA:250,1
DA:251,1
DA:253,1
DA:254,1
DA:255,1
DA:256,1
DA:257,1
DA:258,1
DA:259,1
DA:260,1
DA:263,1
DA:264,1
DA:265,1
DA:266,1
DA:268,1
DA:269,1
DA:270,1
DA:271,1
DA:272,1
DA:273,1
DA:276,1
DA:277,1
DA:278,1
DA:279,1
DA:280,1
DA:281,1
DA:283,1
DA:284,1
DA:285,1
DA:286,1
DA:287,1
DA:288,1
BRF:0
BRH:0
LF:156
LH:127
end_of_record
SF:/Users/mykolborghese/rust-backend/src/infrastructure/db/migrations.rs
FN:3,_RNvNtNtNtCscP9pq2ikS3v_12rust_backend14infrastructure2db10migrations14run_migrations
FN:3,_RNCNvNtNtNtCscP9pq2ikS3v_12rust_backend14infrastructure2db10migrations14run_migrations0B9_
FN:3,_RNCNvNtNtNtCs4kTbYauoumE_12rust_backend14infrastructure2db10migrations14run_migrations0B9_
FN:3,_RNvNtNtNtCs4kTbYauoumE_12rust_backend14infrastructure2db10migrations14run_migrations
FNDA:0,_RNvNtNtNtCscP9pq2ikS3v_12rust_backend14infrastructure2db10migrations14run_migrations
FNDA:0,_RNCNvNtNtNtCscP9pq2ikS3v_12rust_backend14infrastructure2db10migrations14run_migrations0B9_
FNDA:0,_RNCNvNtNtNtCs4kTbYauoumE_12rust_backend14infrastructure2db10migrations14run_migrations0B9_
FNDA:0,_RNvNtNtNtCs4kTbYauoumE_12rust_backend14infrastructure2db10migrations14run_migrations
FNF:2
FNH:0
DA:3,0
DA:5,0
DA:6,0
BRF:0
BRH:0
LF:4
LH:0
end_of_record
SF:/Users/mykolborghese/rust-backend/src/infrastructure/db/pool.rs
FN:5,_RNvNtNtNtCscP9pq2ikS3v_12rust_backend14infrastructure2db4pool11create_pool
FN:5,_RNCNvNtNtNtCscP9pq2ikS3v_12rust_backend14infrastructure2db4pool11create_pool0B9_
FN:23,_RNCNvNtNtNtNtCs4kTbYauoumE_12rust_backend14infrastructure2db4pool5testss_41create_pool_returns_error_for_invalid_url0Bb_
FN:40,_RNCNvNtNtNtNtCs4kTbYauoumE_12rust_backend14infrastructure2db4pool5testss_45create_pool_uses_configured_connection_bounds0Bb_
FN:5,_RNCNvNtNtNtCs4kTbYauoumE_12rust_backend14infrastructure2db4pool11create_pool0B9_
FN:5,_RNvNtNtNtCs4kTbYauoumE_12rust_backend14infrastructure2db4pool11create_pool
FN:23,_RNvNtNtNtNtCs4kTbYauoumE_12rust_backend14infrastructure2db4pool5testss_41create_pool_returns_error_for_invalid_url
FN:40,_RNvNtNtNtNtCs4kTbYauoumE_12rust_backend14infrastructure2db4pool5testss_45create_pool_uses_configured_connection_bounds
FNDA:0,_RNvNtNtNtCscP9pq2ikS3v_12rust_backend14infrastructure2db4pool11create_pool
FNDA:0,_RNCNvNtNtNtCscP9pq2ikS3v_12rust_backend14infrastructure2db4pool11create_pool0B9_
FNDA:1,_RNCNvNtNtNtNtCs4kTbYauoumE_12rust_backend14infrastructure2db4pool5testss_41create_pool_returns_error_for_invalid_url0Bb_
FNDA:1,_RNCNvNtNtNtNtCs4kTbYauoumE_12rust_backend14infrastructure2db4pool5testss_45create_pool_uses_configured_connection_bounds0Bb_
FNDA:2,_RNCNvNtNtNtCs4kTbYauoumE_12rust_backend14infrastructure2db4pool11create_pool0B9_
FNDA:2,_RNvNtNtNtCs4kTbYauoumE_12rust_backend14infrastructure2db4pool11create_pool
FNDA:1,_RNvNtNtNtNtCs4kTbYauoumE_12rust_backend14infrastructure2db4pool5testss_41create_pool_returns_error_for_invalid_url
FNDA:1,_RNvNtNtNtNtCs4kTbYauoumE_12rust_backend14infrastructure2db4pool5testss_45create_pool_uses_configured_connection_bounds
FNF:6
FNH:6
DA:5,2
DA:6,2
DA:7,2
DA:8,2
DA:9,2
DA:10,2
DA:11,2
DA:12,2
DA:13,2
DA:14,2
DA:15,2
DA:23,1
DA:24,1
DA:25,1
DA:26,1
DA:27,1
DA:28,1
DA:29,1
DA:30,1
DA:31,1
DA:32,1
DA:34,1
DA:36,1
DA:37,1
DA:40,1
DA:41,1
DA:42,1
DA:43,1
DA:44,1
DA:45,1
DA:46,1
DA:47,1
DA:48,1
DA:49,1
DA:51,1
DA:53,1
DA:54,1
BRF:0
BRH:0
LF:42
LH:42
end_of_record
SF:/Users/mykolborghese/rust-backend/src/infrastructure/repositories/category_repository.rs
FN:15,_RNvMNtNtNtCscP9pq2ikS3v_12rust_backend14infrastructure12repositories19category_repositoryNtB2_22CategoryRepositoryImpl3new
FN:106,_RNvNtNtNtCscP9pq2ikS3v_12rust_backend14infrastructure12repositories19category_repository20map_unique_violation
FN:116,_RNvNtNtNtCscP9pq2ikS3v_12rust_backend14infrastructure12repositories19category_repository23map_delete_fk_violation
FN:38,_RNvXs_NtNtNtCscP9pq2ikS3v_12rust_backend14infrastructure12repositories19category_repositoryNtB4_22CategoryRepositoryImplNtNtB6_6traits18CategoryRepository10find_by_id
FN:48,_RNvXs_NtNtNtCscP9pq2ikS3v_12rust_backend14infrastructure12repositories19category_repositoryNtB4_22CategoryRepositoryImplNtNtB6_6traits18CategoryRepository13find_children
FN:58,_RNvXs_NtNtNtCscP9pq2ikS3v_12rust_backend14infrastructure12repositories19category_repositoryNtB4_22CategoryRepositoryImplNtNtB6_6traits18CategoryRepository6create
FN:93,_RNvXs_NtNtNtCscP9pq2ikS3v_12rust_backend14infrastructure12repositories19category_repositoryNtB4_22CategoryRepositoryImplNtNtB6_6traits18CategoryRepository6delete
FN:76,_RNvXs_NtNtNtCscP9pq2ikS3v_12rust_backend14infrastructure12repositories19category_repositoryNtB4_22CategoryRepositoryImplNtNtB6_6traits18CategoryRepository6update
FN:22,_RNvXs_NtNtNtCscP9pq2ikS3v_12rust_backend14infrastructure12repositories19category_repositoryNtB4_22CategoryRepositoryImplNtNtB6_6traits18CategoryRepository8find_all
FN:31,_RNvXs_NtNtNtCscP9pq2ikS3v_12rust_backend14infrastructure12repositories19category_repositoryNtB4_22CategoryRepositoryImplNtNtB6_6traits18CategoryRepository9count_all
FN:90,_RNCNCNvXs_NtNtNtCscP9pq2ikS3v_12rust_backend14infrastructure12repositories19category_repositoryNtB8_22CategoryRepositoryImplNtNtBa_6traits18CategoryRepository6update00Be_
FN:90,_RNCNCNvXs_NtNtNtCs4kTbYauoumE_12rust_backend14infrastructure12repositories19category_repositoryNtB8_22CategoryRepositoryImplNtNtBa_6traits18CategoryRepository6update00Be_
FN:15,_RNvMNtNtNtCs4kTbYauoumE_12rust_backend14infrastructure12repositories19category_repositoryNtB2_22CategoryRepositoryImpl3new
FN:106,_RNvNtNtNtCs4kTbYauoumE_12rust_backend14infrastructure12repositories19category_repository20map_unique_violation
FN:116,_RNvNtNtNtCs4kTbYauoumE_12rust_backend14infrastructure12repositories19category_repository23map_delete_fk_violation
FN:38,_RNvXs_NtNtNtCs4kTbYauoumE_12rust_backend14infrastructure12repositories19category_repositoryNtB4_22CategoryRepositoryImplNtNtB6_6traits18CategoryRepository10find_by_id
FN:48,_RNvXs_NtNtNtCs4kTbYauoumE_12rust_backend14infrastructure12repositories19category_repositoryNtB4_22CategoryRepositoryImplNtNtB6_6traits18CategoryRepository13find_children
FN:58,_RNvXs_NtNtNtCs4kTbYauoumE_12rust_backend14infrastructure12repositories19category_repositoryNtB4_22CategoryRepositoryImplNtNtB6_6traits18CategoryRepository6create
FN:93,_RNvXs_NtNtNtCs4kTbYauoumE_12rust_backend14infrastructure12repositories19category_repositoryNtB4_22CategoryRepositoryImplNtNtB6_6traits18CategoryRepository6delete
FN:76,_RNvXs_NtNtNtCs4kTbYauoumE_12rust_backend14infrastructure12repositories19category_repositoryNtB4_22CategoryRepositoryImplNtNtB6_6traits18CategoryRepository6update
FN:22,_RNvXs_NtNtNtCs4kTbYauoumE_12rust_backend14infrastructure12repositories19category_repositoryNtB4_22CategoryRepositoryImplNtNtB6_6traits18CategoryRepository8find_all
FN:31,_RNvXs_NtNtNtCs4kTbYauoumE_12rust_backend14infrastructure12repositories19category_repositoryNtB4_22CategoryRepositoryImplNtNtB6_6traits18CategoryRepository9count_all
FNDA:0,_RNvMNtNtNtCscP9pq2ikS3v_12rust_backend14infrastructure12repositories19category_repositoryNtB2_22CategoryRepositoryImpl3new
FNDA:0,_RNvNtNtNtCscP9pq2ikS3v_12rust_backend14infrastructure12repositories19category_repository20map_unique_violation
FNDA:0,_RNvNtNtNtCscP9pq2ikS3v_12rust_backend14infrastructure12repositories19category_repository23map_delete_fk_violation
FNDA:0,_RNvXs_NtNtNtCscP9pq2ikS3v_12rust_backend14infrastructure12repositories19category_repositoryNtB4_22CategoryRepositoryImplNtNtB6_6traits18CategoryRepository10find_by_id
FNDA:0,_RNvXs_NtNtNtCscP9pq2ikS3v_12rust_backend14infrastructure12repositories19category_repositoryNtB4_22CategoryRepositoryImplNtNtB6_6traits18CategoryRepository13find_children
FNDA:0,_RNvXs_NtNtNtCscP9pq2ikS3v_12rust_backend14infrastructure12repositories19category_repositoryNtB4_22CategoryRepositoryImplNtNtB6_6traits18CategoryRepository6create
FNDA:0,_RNvXs_NtNtNtCscP9pq2ikS3v_12rust_backend14infrastructure12repositories19category_repositoryNtB4_22CategoryRepositoryImplNtNtB6_6traits18CategoryRepository6delete
FNDA:0,_RNvXs_NtNtNtCscP9pq2ikS3v_12rust_backend14infrastructure12repositories19category_repositoryNtB4_22CategoryRepositoryImplNtNtB6_6traits18CategoryRepository6update
FNDA:0,_RNvXs_NtNtNtCscP9pq2ikS3v_12rust_backend14infrastructure12repositories19category_repositoryNtB4_22CategoryRepositoryImplNtNtB6_6traits18CategoryRepository8find_all
FNDA:0,_RNvXs_NtNtNtCscP9pq2ikS3v_12rust_backend14infrastructure12repositories19category_repositoryNtB4_22CategoryRepositoryImplNtNtB6_6traits18CategoryRepository9count_all
FNDA:0,_RNCNCNvXs_NtNtNtCscP9pq2ikS3v_12rust_backend14infrastructure12repositories19category_repositoryNtB8_22CategoryRepositoryImplNtNtBa_6traits18CategoryRepository6update00Be_
FNDA:0,_RNCNCNvXs_NtNtNtCs4kTbYauoumE_12rust_backend14infrastructure12repositories19category_repositoryNtB8_22CategoryRepositoryImplNtNtBa_6traits18CategoryRepository6update00Be_
FNDA:0,_RNvMNtNtNtCs4kTbYauoumE_12rust_backend14infrastructure12repositories19category_repositoryNtB2_22CategoryRepositoryImpl3new
FNDA:0,_RNvNtNtNtCs4kTbYauoumE_12rust_backend14infrastructure12repositories19category_repository20map_unique_violation
FNDA:0,_RNvNtNtNtCs4kTbYauoumE_12rust_backend14infrastructure12repositories19category_repository23map_delete_fk_violation
FNDA:0,_RNvXs_NtNtNtCs4kTbYauoumE_12rust_backend14infrastructure12repositories19category_repositoryNtB4_22CategoryRepositoryImplNtNtB6_6traits18CategoryRepository10find_by_id
FNDA:0,_RNvXs_NtNtNtCs4kTbYauoumE_12rust_backend14infrastructure12repositories19category_repositoryNtB4_22CategoryRepositoryImplNtNtB6_6traits18CategoryRepository13find_children
FNDA:0,_RNvXs_NtNtNtCs4kTbYauoumE_12rust_backend14infrastructure12repositories19category_repositoryNtB4_22CategoryRepositoryImplNtNtB6_6traits18CategoryRepository6create
FNDA:0,_RNvXs_NtNtNtCs4kTbYauoumE_12rust_backend14infrastructure12repositories19category_repositoryNtB4_22CategoryRepositoryImplNtNtB6_6traits18CategoryRepository6delete
FNDA:0,_RNvXs_NtNtNtCs4kTbYauoumE_12rust_backend14infrastructure12repositories19category_repositoryNtB4_22CategoryRepositoryImplNtNtB6_6traits18CategoryRepository6update
FNDA:0,_RNvXs_NtNtNtCs4kTbYauoumE_12rust_backend14infrastructure12repositories19category_repositoryNtB4_22CategoryRepositoryImplNtNtB6_6traits18CategoryRepository8find_all
FNDA:0,_RNvXs_NtNtNtCs4kTbYauoumE_12rust_backend14infrastructure12repositories19category_repositoryNtB4_22CategoryRepositoryImplNtNtB6_6traits18CategoryRepository9count_all
FNF:11
FNH:0
DA:15,0
DA:16,0
DA:17,0
DA:22,0
DA:29,0
DA:31,0
DA:36,0
DA:38,0
DA:46,0
DA:48,0
DA:56,0
DA:58,0
DA:74,0
DA:76,0
DA:90,0
DA:91,0
DA:93,0
DA:103,0
DA:106,0
DA:107,0
DA:108,0
DA:109,0
DA:110,0
DA:111,0
DA:113,0
DA:114,0
DA:116,0
DA:117,0
DA:118,0
DA:119,0
DA:120,0
DA:121,0
DA:122,0
DA:123,0
DA:125,0
DA:126,0
BRF:0
BRH:0
LF:36
LH:0
end_of_record
SF:/Users/mykolborghese/rust-backend/src/infrastructure/repositories/equipment/mod.rs
FN:20,_RNvMNtNtNtCscP9pq2ikS3v_12rust_backend14infrastructure12repositories9equipmentNtB2_23EquipmentRepositoryImpl3new
FN:27,_RNvXs_NtNtNtCscP9pq2ikS3v_12rust_backend14infrastructure12repositories9equipmentNtB4_23EquipmentRepositoryImplNtNtB6_6traits19EquipmentRepository10find_by_id
FN:277,_RNvXs_NtNtNtCscP9pq2ikS3v_12rust_backend14infrastructure12repositories9equipmentNtB4_23EquipmentRepositoryImplNtNtB6_6traits19EquipmentRepository11find_photos
FN:71,_RNvXs_NtNtNtCscP9pq2ikS3v_12rust_backend14infrastructure12repositories9equipmentNtB4_23EquipmentRepositoryImplNtNtB6_6traits19EquipmentRepository12count_search
FN:289,_RNvXs_NtNtNtCscP9pq2ikS3v_12rust_backend14infrastructure12repositories9equipmentNtB4_23EquipmentRepositoryImplNtNtB6_6traits19EquipmentRepository12delete_photo
FN:285,_RNvXs_NtNtNtCscP9pq2ikS3v_12rust_backend14infrastructure12repositories9equipmentNtB4_23EquipmentRepositoryImplNtNtB6_6traits19EquipmentRepository12update_photo
FN:80,_RNvXs_NtNtNtCscP9pq2ikS3v_12rust_backend14infrastructure12repositories9equipmentNtB4_23EquipmentRepositoryImplNtNtB6_6traits19EquipmentRepository13find_by_owner
FN:100,_RNvXs_NtNtNtCscP9pq2ikS3v_12rust_backend14infrastructure12repositories9equipmentNtB4_23EquipmentRepositoryImplNtNtB6_6traits19EquipmentRepository14count_by_owner
FN:114,_RNvXs_NtNtNtCscP9pq2ikS3v_12rust_backend14infrastructure12repositories9equipmentNtB4_23EquipmentRepositoryImplNtNtB6_6traits19EquipmentRepository15count_by_owners
FN:281,_RNvXs_NtNtNtCscP9pq2ikS3v_12rust_backend14infrastructure12repositories9equipmentNtB4_23EquipmentRepositoryImplNtNtB6_6traits19EquipmentRepository16find_photo_by_id
FN:242,_RNvXs_NtNtNtCscP9pq2ikS3v_12rust_backend14infrastructure12repositories9equipmentNtB4_23EquipmentRepositoryImplNtNtB6_6traits19EquipmentRepository19list_all_with_owner
FN:201,_RNvXs_NtNtNtCscP9pq2ikS3v_12rust_backend14infrastructure12repositories9equipmentNtB4_23EquipmentRepositoryImplNtNtB6_6traits19EquipmentRepository23set_availability_atomic
FN:137,_RNvXs_NtNtNtCscP9pq2ikS3v_12rust_backend14infrastructure12repositories9equipmentNtB4_23EquipmentRepositoryImplNtNtB6_6traits19EquipmentRepository6create
FN:194,_RNvXs_NtNtNtCscP9pq2ikS3v_12rust_backend14infrastructure12repositories9equipmentNtB4_23EquipmentRepositoryImplNtNtB6_6traits19EquipmentRepository6delete
FN:67,_RNvXs_NtNtNtCscP9pq2ikS3v_12rust_backend14infrastructure12repositories9equipmentNtB4_23EquipmentRepositoryImplNtNtB6_6traits19EquipmentRepository6search
FN:166,_RNvXs_NtNtNtCscP9pq2ikS3v_12rust_backend14infrastructure12repositories9equipmentNtB4_23EquipmentRepositoryImplNtNtB6_6traits19EquipmentRepository6update
FN:43,_RNvXs_NtNtNtCscP9pq2ikS3v_12rust_backend14infrastructure12repositories9equipmentNtB4_23EquipmentRepositoryImplNtNtB6_6traits19EquipmentRepository8find_all
FN:273,_RNvXs_NtNtNtCscP9pq2ikS3v_12rust_backend14infrastructure12repositories9equipmentNtB4_23EquipmentRepositoryImplNtNtB6_6traits19EquipmentRepository9add_photo
FN:220,_RNvXs_NtNtNtCscP9pq2ikS3v_12rust_backend14infrastructure12repositories9equipmentNtB4_23EquipmentRepositoryImplNtNtB6_6traits19EquipmentRepository9count_all
FN:133,_RNCNCNvXs_NtNtNtCscP9pq2ikS3v_12rust_backend14infrastructure12repositories9equipmentNtB8_23EquipmentRepositoryImplNtNtBa_6traits19EquipmentRepository15count_by_owners00Be_
FN:217,_RNCNCNvXs_NtNtNtCscP9pq2ikS3v_12rust_backend14infrastructure12repositories9equipmentNtB8_23EquipmentRepositoryImplNtNtBa_6traits19EquipmentRepository23set_availability_atomic0s_0Be_
FN:133,_RNCNCNvXs_NtNtNtCs4kTbYauoumE_12rust_backend14infrastructure12repositories9equipmentNtB8_23EquipmentRepositoryImplNtNtBa_6traits19EquipmentRepository15count_by_owners00Be_
FN:217,_RNCNCNvXs_NtNtNtCs4kTbYauoumE_12rust_backend14infrastructure12repositories9equipmentNtB8_23EquipmentRepositoryImplNtNtBa_6traits19EquipmentRepository23set_availability_atomic0s_0Be_
FN:20,_RNvMNtNtNtCs4kTbYauoumE_12rust_backend14infrastructure12repositories9equipmentNtB2_23EquipmentRepositoryImpl3new
FN:27,_RNvXs_NtNtNtCs4kTbYauoumE_12rust_backend14infrastructure12repositories9equipmentNtB4_23EquipmentRepositoryImplNtNtB6_6traits19EquipmentRepository10find_by_id
FN:277,_RNvXs_NtNtNtCs4kTbYauoumE_12rust_backend14infrastructure12repositories9equipmentNtB4_23EquipmentRepositoryImplNtNtB6_6traits19EquipmentRepository11find_photos
FN:71,_RNvXs_NtNtNtCs4kTbYauoumE_12rust_backend14infrastructure12repositories9equipmentNtB4_23EquipmentRepositoryImplNtNtB6_6traits19EquipmentRepository12count_search
FN:289,_RNvXs_NtNtNtCs4kTbYauoumE_12rust_backend14infrastructure12repositories9equipmentNtB4_23EquipmentRepositoryImplNtNtB6_6traits19EquipmentRepository12delete_photo
FN:285,_RNvXs_NtNtNtCs4kTbYauoumE_12rust_backend14infrastructure12repositories9equipmentNtB4_23EquipmentRepositoryImplNtNtB6_6traits19EquipmentRepository12update_photo
FN:80,_RNvXs_NtNtNtCs4kTbYauoumE_12rust_backend14infrastructure12repositories9equipmentNtB4_23EquipmentRepositoryImplNtNtB6_6traits19EquipmentRepository13find_by_owner
FN:100,_RNvXs_NtNtNtCs4kTbYauoumE_12rust_backend14infrastructure12repositories9equipmentNtB4_23EquipmentRepositoryImplNtNtB6_6traits19EquipmentRepository14count_by_owner
FN:114,_RNvXs_NtNtNtCs4kTbYauoumE_12rust_backend14infrastructure12repositories9equipmentNtB4_23EquipmentRepositoryImplNtNtB6_6traits19EquipmentRepository15count_by_owners
FN:281,_RNvXs_NtNtNtCs4kTbYauoumE_12rust_backend14infrastructure12repositories9equipmentNtB4_23EquipmentRepositoryImplNtNtB6_6traits19EquipmentRepository16find_photo_by_id
FN:242,_RNvXs_NtNtNtCs4kTbYauoumE_12rust_backend14infrastructure12repositories9equipmentNtB4_23EquipmentRepositoryImplNtNtB6_6traits19EquipmentRepository19list_all_with_owner
FN:201,_RNvXs_NtNtNtCs4kTbYauoumE_12rust_backend14infrastructure12repositories9equipmentNtB4_23EquipmentRepositoryImplNtNtB6_6traits19EquipmentRepository23set_availability_atomic
FN:137,_RNvXs_NtNtNtCs4kTbYauoumE_12rust_backend14infrastructure12repositories9equipmentNtB4_23EquipmentRepositoryImplNtNtB6_6traits19EquipmentRepository6create
FN:194,_RNvXs_NtNtNtCs4kTbYauoumE_12rust_backend14infrastructure12repositories9equipmentNtB4_23EquipmentRepositoryImplNtNtB6_6traits19EquipmentRepository6delete
FN:67,_RNvXs_NtNtNtCs4kTbYauoumE_12rust_backend14infrastructure12repositories9equipmentNtB4_23EquipmentRepositoryImplNtNtB6_6traits19EquipmentRepository6search
FN:166,_RNvXs_NtNtNtCs4kTbYauoumE_12rust_backend14infrastructure12repositories9equipmentNtB4_23EquipmentRepositoryImplNtNtB6_6traits19EquipmentRepository6update
FN:43,_RNvXs_NtNtNtCs4kTbYauoumE_12rust_backend14infrastructure12repositories9equipmentNtB4_23EquipmentRepositoryImplNtNtB6_6traits19EquipmentRepository8find_all
FN:273,_RNvXs_NtNtNtCs4kTbYauoumE_12rust_backend14infrastructure12repositories9equipmentNtB4_23EquipmentRepositoryImplNtNtB6_6traits19EquipmentRepository9add_photo
FN:220,_RNvXs_NtNtNtCs4kTbYauoumE_12rust_backend14infrastructure12repositories9equipmentNtB4_23EquipmentRepositoryImplNtNtB6_6traits19EquipmentRepository9count_all
FNDA:0,_RNvMNtNtNtCscP9pq2ikS3v_12rust_backend14infrastructure12repositories9equipmentNtB2_23EquipmentRepositoryImpl3new
FNDA:0,_RNvXs_NtNtNtCscP9pq2ikS3v_12rust_backend14infrastructure12repositories9equipmentNtB4_23EquipmentRepositoryImplNtNtB6_6traits19EquipmentRepository10find_by_id
FNDA:0,_RNvXs_NtNtNtCscP9pq2ikS3v_12rust_backend14infrastructure12repositories9equipmentNtB4_23EquipmentRepositoryImplNtNtB6_6traits19EquipmentRepository11find_photos
FNDA:0,_RNvXs_NtNtNtCscP9pq2ikS3v_12rust_backend14infrastructure12repositories9equipmentNtB4_23EquipmentRepositoryImplNtNtB6_6traits19EquipmentRepository12count_search
FNDA:0,_RNvXs_NtNtNtCscP9pq2ikS3v_12rust_backend14infrastructure12repositories9equipmentNtB4_23EquipmentRepositoryImplNtNtB6_6traits19EquipmentRepository12delete_photo
FNDA:0,_RNvXs_NtNtNtCscP9pq2ikS3v_12rust_backend14infrastructure12repositories9equipmentNtB4_23EquipmentRepositoryImplNtNtB6_6traits19EquipmentRepository12update_photo
FNDA:0,_RNvXs_NtNtNtCscP9pq2ikS3v_12rust_backend14infrastructure12repositories9equipmentNtB4_23EquipmentRepositoryImplNtNtB6_6traits19EquipmentRepository13find_by_owner
FNDA:0,_RNvXs_NtNtNtCscP9pq2ikS3v_12rust_backend14infrastructure12repositories9equipmentNtB4_23EquipmentRepositoryImplNtNtB6_6traits19EquipmentRepository14count_by_owner
FNDA:0,_RNvXs_NtNtNtCscP9pq2ikS3v_12rust_backend14infrastructure12repositories9equipmentNtB4_23EquipmentRepositoryImplNtNtB6_6traits19EquipmentRepository15count_by_owners
FNDA:0,_RNvXs_NtNtNtCscP9pq2ikS3v_12rust_backend14infrastructure12repositories9equipmentNtB4_23EquipmentRepositoryImplNtNtB6_6traits19EquipmentRepository16find_photo_by_id
FNDA:0,_RNvXs_NtNtNtCscP9pq2ikS3v_12rust_backend14infrastructure12repositories9equipmentNtB4_23EquipmentRepositoryImplNtNtB6_6traits19EquipmentRepository19list_all_with_owner
FNDA:0,_RNvXs_NtNtNtCscP9pq2ikS3v_12rust_backend14infrastructure12repositories9equipmentNtB4_23EquipmentRepositoryImplNtNtB6_6traits19EquipmentRepository23set_availability_atomic
FNDA:0,_RNvXs_NtNtNtCscP9pq2ikS3v_12rust_backend14infrastructure12repositories9equipmentNtB4_23EquipmentRepositoryImplNtNtB6_6traits19EquipmentRepository6create
FNDA:0,_RNvXs_NtNtNtCscP9pq2ikS3v_12rust_backend14infrastructure12repositories9equipmentNtB4_23EquipmentRepositoryImplNtNtB6_6traits19EquipmentRepository6delete
FNDA:0,_RNvXs_NtNtNtCscP9pq2ikS3v_12rust_backend14infrastructure12repositories9equipmentNtB4_23EquipmentRepositoryImplNtNtB6_6traits19EquipmentRepository6search
FNDA:0,_RNvXs_NtNtNtCscP9pq2ikS3v_12rust_backend14infrastructure12repositories9equipmentNtB4_23EquipmentRepositoryImplNtNtB6_6traits19EquipmentRepository6update
FNDA:0,_RNvXs_NtNtNtCscP9pq2ikS3v_12rust_backend14infrastructure12repositories9equipmentNtB4_23EquipmentRepositoryImplNtNtB6_6traits19EquipmentRepository8find_all
FNDA:0,_RNvXs_NtNtNtCscP9pq2ikS3v_12rust_backend14infrastructure12repositories9equipmentNtB4_23EquipmentRepositoryImplNtNtB6_6traits19EquipmentRepository9add_photo
FNDA:0,_RNvXs_NtNtNtCscP9pq2ikS3v_12rust_backend14infrastructure12repositories9equipmentNtB4_23EquipmentRepositoryImplNtNtB6_6traits19EquipmentRepository9count_all
FNDA:0,_RNCNCNvXs_NtNtNtCscP9pq2ikS3v_12rust_backend14infrastructure12repositories9equipmentNtB8_23EquipmentRepositoryImplNtNtBa_6traits19EquipmentRepository15count_by_owners00Be_
FNDA:0,_RNCNCNvXs_NtNtNtCscP9pq2ikS3v_12rust_backend14infrastructure12repositories9equipmentNtB8_23EquipmentRepositoryImplNtNtBa_6traits19EquipmentRepository23set_availability_atomic0s_0Be_
FNDA:0,_RNCNCNvXs_NtNtNtCs4kTbYauoumE_12rust_backend14infrastructure12repositories9equipmentNtB8_23EquipmentRepositoryImplNtNtBa_6traits19EquipmentRepository15count_by_owners00Be_
FNDA:0,_RNCNCNvXs_NtNtNtCs4kTbYauoumE_12rust_backend14infrastructure12repositories9equipmentNtB8_23EquipmentRepositoryImplNtNtBa_6traits19EquipmentRepository23set_availability_atomic0s_0Be_
FNDA:0,_RNvMNtNtNtCs4kTbYauoumE_12rust_backend14infrastructure12repositories9equipmentNtB2_23EquipmentRepositoryImpl3new
FNDA:0,_RNvXs_NtNtNtCs4kTbYauoumE_12rust_backend14infrastructure12repositories9equipmentNtB4_23EquipmentRepositoryImplNtNtB6_6traits19EquipmentRepository10find_by_id
FNDA:0,_RNvXs_NtNtNtCs4kTbYauoumE_12rust_backend14infrastructure12repositories9equipmentNtB4_23EquipmentRepositoryImplNtNtB6_6traits19EquipmentRepository11find_photos
FNDA:0,_RNvXs_NtNtNtCs4kTbYauoumE_12rust_backend14infrastructure12repositories9equipmentNtB4_23EquipmentRepositoryImplNtNtB6_6traits19EquipmentRepository12count_search
FNDA:0,_RNvXs_NtNtNtCs4kTbYauoumE_12rust_backend14infrastructure12repositories9equipmentNtB4_23EquipmentRepositoryImplNtNtB6_6traits19EquipmentRepository12delete_photo
FNDA:0,_RNvXs_NtNtNtCs4kTbYauoumE_12rust_backend14infrastructure12repositories9equipmentNtB4_23EquipmentRepositoryImplNtNtB6_6traits19EquipmentRepository12update_photo
FNDA:0,_RNvXs_NtNtNtCs4kTbYauoumE_12rust_backend14infrastructure12repositories9equipmentNtB4_23EquipmentRepositoryImplNtNtB6_6traits19EquipmentRepository13find_by_owner
FNDA:0,_RNvXs_NtNtNtCs4kTbYauoumE_12rust_backend14infrastructure12repositories9equipmentNtB4_23EquipmentRepositoryImplNtNtB6_6traits19EquipmentRepository14count_by_owner
FNDA:0,_RNvXs_NtNtNtCs4kTbYauoumE_12rust_backend14infrastructure12repositories9equipmentNtB4_23EquipmentRepositoryImplNtNtB6_6traits19EquipmentRepository15count_by_owners
FNDA:0,_RNvXs_NtNtNtCs4kTbYauoumE_12rust_backend14infrastructure12repositories9equipmentNtB4_23EquipmentRepositoryImplNtNtB6_6traits19EquipmentRepository16find_photo_by_id
FNDA:0,_RNvXs_NtNtNtCs4kTbYauoumE_12rust_backend14infrastructure12repositories9equipmentNtB4_23EquipmentRepositoryImplNtNtB6_6traits19EquipmentRepository19list_all_with_owner
FNDA:0,_RNvXs_NtNtNtCs4kTbYauoumE_12rust_backend14infrastructure12repositories9equipmentNtB4_23EquipmentRepositoryImplNtNtB6_6traits19EquipmentRepository23set_availability_atomic
FNDA:0,_RNvXs_NtNtNtCs4kTbYauoumE_12rust_backend14infrastructure12repositories9equipmentNtB4_23EquipmentRepositoryImplNtNtB6_6traits19EquipmentRepository6create
FNDA:0,_RNvXs_NtNtNtCs4kTbYauoumE_12rust_backend14infrastructure12repositories9equipmentNtB4_23EquipmentRepositoryImplNtNtB6_6traits19EquipmentRepository6delete
FNDA:0,_RNvXs_NtNtNtCs4kTbYauoumE_12rust_backend14infrastructure12repositories9equipmentNtB4_23EquipmentRepositoryImplNtNtB6_6traits19EquipmentRepository6search
FNDA:0,_RNvXs_NtNtNtCs4kTbYauoumE_12rust_backend14infrastructure12repositories9equipmentNtB4_23EquipmentRepositoryImplNtNtB6_6traits19EquipmentRepository6update
FNDA:0,_RNvXs_NtNtNtCs4kTbYauoumE_12rust_backend14infrastructure12repositories9equipmentNtB4_23EquipmentRepositoryImplNtNtB6_6traits19EquipmentRepository8find_all
FNDA:0,_RNvXs_NtNtNtCs4kTbYauoumE_12rust_backend14infrastructure12repositories9equipmentNtB4_23EquipmentRepositoryImplNtNtB6_6traits19EquipmentRepository9add_photo
FNDA:0,_RNvXs_NtNtNtCs4kTbYauoumE_12rust_backend14infrastructure12repositories9equipmentNtB4_23EquipmentRepositoryImplNtNtB6_6traits19EquipmentRepository9count_all
FNF:21
FNH:0
DA:20,0
DA:21,0
DA:22,0
DA:27,0
DA:41,0
DA:43,0
DA:60,0
DA:67,0
DA:69,0
DA:71,0
DA:73,0
DA:80,0
DA:98,0
DA:100,0
DA:112,0
DA:114,0
DA:133,0
DA:135,0
DA:137,0
DA:164,0
DA:166,0
DA:192,0
DA:194,0
DA:199,0
DA:201,0
DA:217,0
DA:218,0
DA:220,0
DA:235,0
DA:242,0
DA:271,0
DA:273,0
DA:275,0
DA:277,0
DA:279,0
DA:281,0
DA:283,0
DA:285,0
DA:287,0
DA:289,0
DA:291,0
BRF:0
BRH:0
LF:41
LH:0
end_of_record
SF:/Users/mykolborghese/rust-backend/src/infrastructure/repositories/equipment/photo.rs
FN:26,_RNCNvNtNtNtNtCscP9pq2ikS3v_12rust_backend14infrastructure12repositories9equipment5photo11find_photos0Bb_
FN:67,_RNCNvNtNtNtNtCscP9pq2ikS3v_12rust_backend14infrastructure12repositories9equipment5photo12delete_photo0Bb_
FN:48,_RNCNvNtNtNtNtCscP9pq2ikS3v_12rust_backend14infrastructure12repositories9equipment5photo12update_photo0Bb_
FN:37,_RNCNvNtNtNtNtCscP9pq2ikS3v_12rust_backend14infrastructure12repositories9equipment5photo16find_photo_by_id0Bb_
FN:6,_RNCNvNtNtNtNtCscP9pq2ikS3v_12rust_backend14infrastructure12repositories9equipment5photo9add_photo0Bb_
FN:26,_RNvNtNtNtNtCscP9pq2ikS3v_12rust_backend14infrastructure12repositories9equipment5photo11find_photos
FN:67,_RNvNtNtNtNtCscP9pq2ikS3v_12rust_backend14infrastructure12repositories9equipment5photo12delete_photo
FN:48,_RNvNtNtNtNtCscP9pq2ikS3v_12rust_backend14infrastructure12repositories9equipment5photo12update_photo
FN:37,_RNvNtNtNtNtCscP9pq2ikS3v_12rust_backend14infrastructure12repositories9equipment5photo16find_photo_by_id
FN:6,_RNvNtNtNtNtCscP9pq2ikS3v_12rust_backend14infrastructure12repositories9equipment5photo9add_photo
FN:26,_RNCNvNtNtNtNtCs4kTbYauoumE_12rust_backend14infrastructure12repositories9equipment5photo11find_photos0Bb_
FN:67,_RNCNvNtNtNtNtCs4kTbYauoumE_12rust_backend14infrastructure12repositories9equipment5photo12delete_photo0Bb_
FN:48,_RNCNvNtNtNtNtCs4kTbYauoumE_12rust_backend14infrastructure12repositories9equipment5photo12update_photo0Bb_
FN:37,_RNCNvNtNtNtNtCs4kTbYauoumE_12rust_backend14infrastructure12repositories9equipment5photo16find_photo_by_id0Bb_
FN:6,_RNCNvNtNtNtNtCs4kTbYauoumE_12rust_backend14infrastructure12repositories9equipment5photo9add_photo0Bb_
FN:26,_RNvNtNtNtNtCs4kTbYauoumE_12rust_backend14infrastructure12repositories9equipment5photo11find_photos
FN:67,_RNvNtNtNtNtCs4kTbYauoumE_12rust_backend14infrastructure12repositories9equipment5photo12delete_photo
FN:48,_RNvNtNtNtNtCs4kTbYauoumE_12rust_backend14infrastructure12repositories9equipment5photo12update_photo
FN:37,_RNvNtNtNtNtCs4kTbYauoumE_12rust_backend14infrastructure12repositories9equipment5photo16find_photo_by_id
FN:6,_RNvNtNtNtNtCs4kTbYauoumE_12rust_backend14infrastructure12repositories9equipment5photo9add_photo
FNDA:0,_RNCNvNtNtNtNtCscP9pq2ikS3v_12rust_backend14infrastructure12repositories9equipment5photo11find_photos0Bb_
FNDA:0,_RNCNvNtNtNtNtCscP9pq2ikS3v_12rust_backend14infrastructure12repositories9equipment5photo12delete_photo0Bb_
FNDA:0,_RNCNvNtNtNtNtCscP9pq2ikS3v_12rust_backend14infrastructure12repositories9equipment5photo12update_photo0Bb_
FNDA:0,_RNCNvNtNtNtNtCscP9pq2ikS3v_12rust_backend14infrastructure12repositories9equipment5photo16find_photo_by_id0Bb_
FNDA:0,_RNCNvNtNtNtNtCscP9pq2ikS3v_12rust_backend14infrastructure12repositories9equipment5photo9add_photo0Bb_
FNDA:0,_RNvNtNtNtNtCscP9pq2ikS3v_12rust_backend14infrastructure12repositories9equipment5photo11find_photos
FNDA:0,_RNvNtNtNtNtCscP9pq2ikS3v_12rust_backend14infrastructure12repositories9equipment5photo12delete_photo
FNDA:0,_RNvNtNtNtNtCscP9pq2ikS3v_12rust_backend14infrastructure12repositories9equipment5photo12update_photo
FNDA:0,_RNvNtNtNtNtCscP9pq2ikS3v_12rust_backend14infrastructure12repositories9equipment5photo16find_photo_by_id
FNDA:0,_RNvNtNtNtNtCscP9pq2ikS3v_12rust_backend14infrastructure12repositories9equipment5photo9add_photo
FNDA:0,_RNCNvNtNtNtNtCs4kTbYauoumE_12rust_backend14infrastructure12repositories9equipment5photo11find_photos0Bb_
FNDA:0,_RNCNvNtNtNtNtCs4kTbYauoumE_12rust_backend14infrastructure12repositories9equipment5photo12delete_photo0Bb_
FNDA:0,_RNCNvNtNtNtNtCs4kTbYauoumE_12rust_backend14infrastructure12repositories9equipment5photo12update_photo0Bb_
FNDA:0,_RNCNvNtNtNtNtCs4kTbYauoumE_12rust_backend14infrastructure12repositories9equipment5photo16find_photo_by_id0Bb_
FNDA:0,_RNCNvNtNtNtNtCs4kTbYauoumE_12rust_backend14infrastructure12repositories9equipment5photo9add_photo0Bb_
FNDA:0,_RNvNtNtNtNtCs4kTbYauoumE_12rust_backend14infrastructure12repositories9equipment5photo11find_photos
FNDA:0,_RNvNtNtNtNtCs4kTbYauoumE_12rust_backend14infrastructure12repositories9equipment5photo12delete_photo
FNDA:0,_RNvNtNtNtNtCs4kTbYauoumE_12rust_backend14infrastructure12repositories9equipment5photo12update_photo
FNDA:0,_RNvNtNtNtNtCs4kTbYauoumE_12rust_backend14infrastructure12repositories9equipment5photo16find_photo_by_id
FNDA:0,_RNvNtNtNtNtCs4kTbYauoumE_12rust_backend14infrastructure12repositories9equipment5photo9add_photo
FNF:10
FNH:0
DA:6,0
DA:7,0
DA:21,0
DA:22,0
DA:23,0
DA:24,0
DA:26,0
DA:27,0
DA:32,0
DA:33,0
DA:34,0
DA:35,0
DA:37,0
DA:38,0
DA:43,0
DA:44,0
DA:45,0
DA:46,0
DA:48,0
DA:49,0
DA:62,0
DA:63,0
DA:64,0
DA:65,0
DA:67,0
DA:68,0
DA:69,0
DA:70,0
DA:71,0
DA:72,0
BRF:0
BRH:0
LF:35
LH:0
end_of_record
SF:/Users/mykolborghese/rust-backend/src/infrastructure/repositories/equipment/search.rs
FN:85,_RNCNvNtNtNtNtCscP9pq2ikS3v_12rust_backend14infrastructure12repositories9equipment6search12count_search0Bb_
FN:46,_RNCNvNtNtNtNtCscP9pq2ikS3v_12rust_backend14infrastructure12repositories9equipment6search6search0Bb_
FN:85,_RNvNtNtNtNtCscP9pq2ikS3v_12rust_backend14infrastructure12repositories9equipment6search12count_search
FN:6,_RNvNtNtNtNtCscP9pq2ikS3v_12rust_backend14infrastructure12repositories9equipment6search12push_filters
FN:41,_RNvNtNtNtNtCscP9pq2ikS3v_12rust_backend14infrastructure12repositories9equipment6search6search
FN:85,_RNCNvNtNtNtNtCs4kTbYauoumE_12rust_backend14infrastructure12repositories9equipment6search12count_search0Bb_
FN:46,_RNCNvNtNtNtNtCs4kTbYauoumE_12rust_backend14infrastructure12repositories9equipment6search6search0Bb_
FN:85,_RNvNtNtNtNtCs4kTbYauoumE_12rust_backend14infrastructure12repositories9equipment6search12count_search
FN:41,_RNvNtNtNtNtCs4kTbYauoumE_12rust_backend14infrastructure12repositories9equipment6search6search
FN:6,_RNvNtNtNtNtCs4kTbYauoumE_12rust_backend14infrastructure12repositories9equipment6search12push_filters
FNDA:0,_RNCNvNtNtNtNtCscP9pq2ikS3v_12rust_backend14infrastructure12repositories9equipment6search12count_search0Bb_
FNDA:0,_RNCNvNtNtNtNtCscP9pq2ikS3v_12rust_backend14infrastructure12repositories9equipment6search6search0Bb_
FNDA:0,_RNvNtNtNtNtCscP9pq2ikS3v_12rust_backend14infrastructure12repositories9equipment6search12count_search
FNDA:0,_RNvNtNtNtNtCscP9pq2ikS3v_12rust_backend14infrastructure12repositories9equipment6search12push_filters
FNDA:0,_RNvNtNtNtNtCscP9pq2ikS3v_12rust_backend14infrastructure12repositories9equipment6search6search
FNDA:0,_RNCNvNtNtNtNtCs4kTbYauoumE_12rust_backend14infrastructure12repositories9equipment6search12count_search0Bb_
FNDA:0,_RNCNvNtNtNtNtCs4kTbYauoumE_12rust_backend14infrastructure12repositories9equipment6search6search0Bb_
FNDA:0,_RNvNtNtNtNtCs4kTbYauoumE_12rust_backend14infrastructure12repositories9equipment6search12count_search
FNDA:0,_RNvNtNtNtNtCs4kTbYauoumE_12rust_backend14infrastructure12repositories9equipment6search6search
FNDA:0,_RNvNtNtNtNtCs4kTbYauoumE_12rust_backend14infrastructure12repositories9equipment6search12push_filters
FNF:5
FNH:0
DA:6,0
DA:7,0
DA:8,0
DA:9,0
DA:10,0
DA:11,0
DA:12,0
DA:13,0
DA:14,0
DA:15,0
DA:16,0
DA:17,0
DA:18,0
DA:19,0
DA:20,0
DA:21,0
DA:22,0
DA:24,0
DA:25,0
DA:26,0
DA:27,0
DA:28,0
DA:29,0
DA:30,0
DA:31,0
DA:32,0
DA:33,0
DA:34,0
DA:35,0
DA:36,0
DA:37,0
DA:38,0
DA:39,0
DA:41,0
DA:42,0
DA:43,0
DA:44,0
DA:45,0
DA:46,0
DA:47,0
DA:56,0
DA:58,0
DA:59,0
DA:60,0
DA:61,0
DA:62,0
DA:63,0
DA:64,0
DA:65,0
DA:66,0
DA:67,0
DA:68,0
DA:69,0
DA:70,0
DA:71,0
DA:73,0
DA:74,0
DA:75,0
DA:76,0
DA:78,0
DA:79,0
DA:80,0
DA:81,0
DA:82,0
DA:83,0
DA:85,0
DA:86,0
DA:94,0
DA:96,0
DA:97,0
DA:98,0
BRF:0
BRH:0
LF:73
LH:0
end_of_record
SF:/Users/mykolborghese/rust-backend/src/infrastructure/repositories/message_repository.rs
FN:14,_RNvMNtNtNtCscP9pq2ikS3v_12rust_backend14infrastructure12repositories18message_repositoryNtB2_21MessageRepositoryImpl3new
FN:179,_RNvXs_NtNtNtCscP9pq2ikS3v_12rust_backend14infrastructure12repositories18message_repositoryNtB4_21MessageRepositoryImplNtNtB6_6traits17MessageRepository12mark_as_read
FN:113,_RNvXs_NtNtNtCscP9pq2ikS3v_12rust_backend14infrastructure12repositories18message_repositoryNtB4_21MessageRepositoryImplNtNtB6_6traits17MessageRepository13find_messages
FN:131,_RNvXs_NtNtNtCscP9pq2ikS3v_12rust_backend14infrastructure12repositories18message_repositoryNtB4_21MessageRepositoryImplNtNtB6_6traits17MessageRepository14create_message
FN:168,_RNvXs_NtNtNtCscP9pq2ikS3v_12rust_backend14infrastructure12repositories18message_repositoryNtB4_21MessageRepositoryImplNtNtB6_6traits17MessageRepository14is_participant
FN:21,_RNvXs_NtNtNtCscP9pq2ikS3v_12rust_backend14infrastructure12repositories18message_repositoryNtB4_21MessageRepositoryImplNtNtB6_6traits17MessageRepository17find_conversation
FN:47,_RNvXs_NtNtNtCscP9pq2ikS3v_12rust_backend14infrastructure12repositories18message_repositoryNtB4_21MessageRepositoryImplNtNtB6_6traits17MessageRepository19create_conversation
FN:158,_RNvXs_NtNtNtCscP9pq2ikS3v_12rust_backend14infrastructure12repositories18message_repositoryNtB4_21MessageRepositoryImplNtNtB6_6traits17MessageRepository20find_participant_ids
FN:31,_RNvXs_NtNtNtCscP9pq2ikS3v_12rust_backend14infrastructure12repositories18message_repositoryNtB4_21MessageRepositoryImplNtNtB6_6traits17MessageRepository23find_user_conversations
FN:14,_RNvMNtNtNtCs4kTbYauoumE_12rust_backend14infrastructure12repositories18message_repositoryNtB2_21MessageRepositoryImpl3new
FN:179,_RNvXs_NtNtNtCs4kTbYauoumE_12rust_backend14infrastructure12repositories18message_repositoryNtB4_21MessageRepositoryImplNtNtB6_6traits17MessageRepository12mark_as_read
FN:113,_RNvXs_NtNtNtCs4kTbYauoumE_12rust_backend14infrastructure12repositories18message_repositoryNtB4_21MessageRepositoryImplNtNtB6_6traits17MessageRepository13find_messages
FN:131,_RNvXs_NtNtNtCs4kTbYauoumE_12rust_backend14infrastructure12repositories18message_repositoryNtB4_21MessageRepositoryImplNtNtB6_6traits17MessageRepository14create_message
FN:168,_RNvXs_NtNtNtCs4kTbYauoumE_12rust_backend14infrastructure12repositories18message_repositoryNtB4_21MessageRepositoryImplNtNtB6_6traits17MessageRepository14is_participant
FN:21,_RNvXs_NtNtNtCs4kTbYauoumE_12rust_backend14infrastructure12repositories18message_repositoryNtB4_21MessageRepositoryImplNtNtB6_6traits17MessageRepository17find_conversation
FN:47,_RNvXs_NtNtNtCs4kTbYauoumE_12rust_backend14infrastructure12repositories18message_repositoryNtB4_21MessageRepositoryImplNtNtB6_6traits17MessageRepository19create_conversation
FN:158,_RNvXs_NtNtNtCs4kTbYauoumE_12rust_backend14infrastructure12repositories18message_repositoryNtB4_21MessageRepositoryImplNtNtB6_6traits17MessageRepository20find_participant_ids
FN:31,_RNvXs_NtNtNtCs4kTbYauoumE_12rust_backend14infrastructure12repositories18message_repositoryNtB4_21MessageRepositoryImplNtNtB6_6traits17MessageRepository23find_user_conversations
FNDA:0,_RNvMNtNtNtCscP9pq2ikS3v_12rust_backend14infrastructure12repositories18message_repositoryNtB2_21MessageRepositoryImpl3new
FNDA:0,_RNvXs_NtNtNtCscP9pq2ikS3v_12rust_backend14infrastructure12repositories18message_repositoryNtB4_21MessageRepositoryImplNtNtB6_6traits17MessageRepository12mark_as_read
FNDA:0,_RNvXs_NtNtNtCscP9pq2ikS3v_12rust_backend14infrastructure12repositories18message_repositoryNtB4_21MessageRepositoryImplNtNtB6_6traits17MessageRepository13find_messages
FNDA:0,_RNvXs_NtNtNtCscP9pq2ikS3v_12rust_backend14infrastructure12repositories18message_repositoryNtB4_21MessageRepositoryImplNtNtB6_6traits17MessageRepository14create_message
FNDA:0,_RNvXs_NtNtNtCscP9pq2ikS3v_12rust_backend14infrastructure12repositories18message_repositoryNtB4_21MessageRepositoryImplNtNtB6_6traits17MessageRepository14is_participant
FNDA:0,_RNvXs_NtNtNtCscP9pq2ikS3v_12rust_backend14infrastructure12repositories18message_repositoryNtB4_21MessageRepositoryImplNtNtB6_6traits17MessageRepository17find_conversation
FNDA:0,_RNvXs_NtNtNtCscP9pq2ikS3v_12rust_backend14infrastructure12repositories18message_repositoryNtB4_21MessageRepositoryImplNtNtB6_6traits17MessageRepository19create_conversation
FNDA:0,_RNvXs_NtNtNtCscP9pq2ikS3v_12rust_backend14infrastructure12repositories18message_repositoryNtB4_21MessageRepositoryImplNtNtB6_6traits17MessageRepository20find_participant_ids
FNDA:0,_RNvXs_NtNtNtCscP9pq2ikS3v_12rust_backend14infrastructure12repositories18message_repositoryNtB4_21MessageRepositoryImplNtNtB6_6traits17MessageRepository23find_user_conversations
FNDA:0,_RNvMNtNtNtCs4kTbYauoumE_12rust_backend14infrastructure12repositories18message_repositoryNtB2_21MessageRepositoryImpl3new
FNDA:0,_RNvXs_NtNtNtCs4kTbYauoumE_12rust_backend14infrastructure12repositories18message_repositoryNtB4_21MessageRepositoryImplNtNtB6_6traits17MessageRepository12mark_as_read
FNDA:0,_RNvXs_NtNtNtCs4kTbYauoumE_12rust_backend14infrastructure12repositories18message_repositoryNtB4_21MessageRepositoryImplNtNtB6_6traits17MessageRepository13find_messages
FNDA:0,_RNvXs_NtNtNtCs4kTbYauoumE_12rust_backend14infrastructure12repositories18message_repositoryNtB4_21MessageRepositoryImplNtNtB6_6traits17MessageRepository14create_message
FNDA:0,_RNvXs_NtNtNtCs4kTbYauoumE_12rust_backend14infrastructure12repositories18message_repositoryNtB4_21MessageRepositoryImplNtNtB6_6traits17MessageRepository14is_participant
FNDA:0,_RNvXs_NtNtNtCs4kTbYauoumE_12rust_backend14infrastructure12repositories18message_repositoryNtB4_21MessageRepositoryImplNtNtB6_6traits17MessageRepository17find_conversation
FNDA:0,_RNvXs_NtNtNtCs4kTbYauoumE_12rust_backend14infrastructure12repositories18message_repositoryNtB4_21MessageRepositoryImplNtNtB6_6traits17MessageRepository19create_conversation
FNDA:0,_RNvXs_NtNtNtCs4kTbYauoumE_12rust_backend14infrastructure12repositories18message_repositoryNtB4_21MessageRepositoryImplNtNtB6_6traits17MessageRepository20find_participant_ids
FNDA:0,_RNvXs_NtNtNtCs4kTbYauoumE_12rust_backend14infrastructure12repositories18message_repositoryNtB4_21MessageRepositoryImplNtNtB6_6traits17MessageRepository23find_user_conversations
FNF:9
FNH:0
DA:14,0
DA:15,0
DA:16,0
DA:21,0
DA:29,0
DA:31,0
DA:45,0
DA:47,0
DA:106,0
DA:113,0
DA:129,0
DA:131,0
DA:156,0
DA:158,0
DA:166,0
DA:168,0
DA:177,0
DA:179,0
DA:189,0
BRF:0
BRH:0
LF:19
LH:0
end_of_record
SF:/Users/mykolborghese/rust-backend/src/infrastructure/repositories/traits.rs
FN:63,_RNvYNtNtNtNtCskYAENjhi0NG_15auth0_endpoints6common5mocks9user_repo12MockUserRepoNtNtNtNtCscP9pq2ikS3v_12rust_backend14infrastructure12repositories6traits14UserRepository11update_roleBa_
FN:51,_RNvYNtNtNtNtCskYAENjhi0NG_15auth0_endpoints6common5mocks9user_repo12MockUserRepoNtNtNtNtCscP9pq2ikS3v_12rust_backend14infrastructure12repositories6traits14UserRepository8list_allBa_
FN:57,_RNvYNtNtNtNtCskYAENjhi0NG_15auth0_endpoints6common5mocks9user_repo12MockUserRepoNtNtNtNtCscP9pq2ikS3v_12rust_backend14infrastructure12repositories6traits14UserRepository9count_allBa_
FN:119,_RNvYNtNtNtNtCskYAENjhi0NG_15auth0_endpoints6common5mocks14equipment_repo17MockEquipmentRepoNtNtNtNtCscP9pq2ikS3v_12rust_backend14infrastructure12repositories6traits19EquipmentRepository12count_searchBa_
FN:149,_RNvYNtNtNtNtCskYAENjhi0NG_15auth0_endpoints6common5mocks14equipment_repo17MockEquipmentRepoNtNtNtNtCscP9pq2ikS3v_12rust_backend14infrastructure12repositories6traits19EquipmentRepository15count_by_ownersBa_
FN:177,_RNvYNtNtNtNtCskYAENjhi0NG_15auth0_endpoints6common5mocks14equipment_repo17MockEquipmentRepoNtNtNtNtCscP9pq2ikS3v_12rust_backend14infrastructure12repositories6traits19EquipmentRepository19list_all_with_ownerBa_
FN:158,_RNvYNtNtNtNtCskYAENjhi0NG_15auth0_endpoints6common5mocks14equipment_repo17MockEquipmentRepoNtNtNtNtCscP9pq2ikS3v_12rust_backend14infrastructure12repositories6traits19EquipmentRepository23set_availability_atomicBa_
FN:166,_RNvYNtNtNtNtCskYAENjhi0NG_15auth0_endpoints6common5mocks14equipment_repo17MockEquipmentRepoNtNtNtNtCscP9pq2ikS3v_12rust_backend14infrastructure12repositories6traits19EquipmentRepository9count_allBa_
FN:234,_RNvYNtNtNtNtCskYAENjhi0NG_15auth0_endpoints6common5mocks13category_repo16MockCategoryRepoNtNtNtNtCscP9pq2ikS3v_12rust_backend14infrastructure12repositories6traits18CategoryRepository6deleteBa_
FN:228,_RNvYNtNtNtNtCskYAENjhi0NG_15auth0_endpoints6common5mocks13category_repo16MockCategoryRepoNtNtNtNtCscP9pq2ikS3v_12rust_backend14infrastructure12repositories6traits18CategoryRepository6updateBa_
FN:215,_RNvYNtNtNtNtCskYAENjhi0NG_15auth0_endpoints6common5mocks13category_repo16MockCategoryRepoNtNtNtNtCscP9pq2ikS3v_12rust_backend14infrastructure12repositories6traits18CategoryRepository9count_allBa_
FN:63,_RNvYpNtNtNtNtCscP9pq2ikS3v_12rust_backend14infrastructure12repositories6traits14UserRepository11update_roleBb_
FN:51,_RNvYpNtNtNtNtCscP9pq2ikS3v_12rust_backend14infrastructure12repositories6traits14UserRepository8list_allBb_
FN:57,_RNvYpNtNtNtNtCscP9pq2ikS3v_12rust_backend14infrastructure12repositories6traits14UserRepository9count_allBb_
FN:204,_RNvYpNtNtNtNtCscP9pq2ikS3v_12rust_backend14infrastructure12repositories6traits17MessageRepository20find_participant_idsBb_
FN:222,_RNvYpNtNtNtNtCscP9pq2ikS3v_12rust_backend14infrastructure12repositories6traits18CategoryRepository6createBb_
FN:234,_RNvYpNtNtNtNtCscP9pq2ikS3v_12rust_backend14infrastructure12repositories6traits18CategoryRepository6deleteBb_
FN:228,_RNvYpNtNtNtNtCscP9pq2ikS3v_12rust_backend14infrastructure12repositories6traits18CategoryRepository6updateBb_
FN:215,_RNvYpNtNtNtNtCscP9pq2ikS3v_12rust_backend14infrastructure12repositories6traits18CategoryRepository9count_allBb_
FN:119,_RNvYpNtNtNtNtCscP9pq2ikS3v_12rust_backend14infrastructure12repositories6traits19EquipmentRepository12count_searchBb_
FN:143,_RNvYpNtNtNtNtCscP9pq2ikS3v_12rust_backend14infrastructure12repositories6traits19EquipmentRepository14count_by_ownerBb_
FN:149,_RNvYpNtNtNtNtCscP9pq2ikS3v_12rust_backend14infrastructure12repositories6traits19EquipmentRepository15count_by_ownersBb_
FN:177,_RNvYpNtNtNtNtCscP9pq2ikS3v_12rust_backend14infrastructure12repositories6traits19EquipmentRepository19list_all_with_ownerBb_
FN:158,_RNvYpNtNtNtNtCscP9pq2ikS3v_12rust_backend14infrastructure12repositories6traits19EquipmentRepository23set_availability_atomicBb_
FN:109,_RNvYpNtNtNtNtCscP9pq2ikS3v_12rust_backend14infrastructure12repositories6traits19EquipmentRepository6searchBb_
FN:166,_RNvYpNtNtNtNtCscP9pq2ikS3v_12rust_backend14infrastructure12repositories6traits19EquipmentRepository9count_allBb_
FN:26,_RNvMNtNtNtCscP9pq2ikS3v_12rust_backend14infrastructure12repositories6traitsNtB2_21EquipmentSearchParams11has_filters
FN:63,_RNvYNtNtNtNtCs1ivKQgclqdJ_15auth_middleware6common5mocks9user_repo12MockUserRepoNtNtNtNtCscP9pq2ikS3v_12rust_backend14infrastructure12repositories6traits14UserRepository11update_roleBa_
FN:51,_RNvYNtNtNtNtCs1ivKQgclqdJ_15auth_middleware6common5mocks9user_repo12MockUserRepoNtNtNtNtCscP9pq2ikS3v_12rust_backend14infrastructure12repositories6traits14UserRepository8list_allBa_
FN:57,_RNvYNtNtNtNtCs1ivKQgclqdJ_15auth_middleware6common5mocks9user_repo12MockUserRepoNtNtNtNtCscP9pq2ikS3v_12rust_backend14infrastructure12repositories6traits14UserRepository9count_allBa_
FN:119,_RNvYNtNtNtNtCsbAAlVIUyVvW_8core_api6common5mocks14equipment_repo17MockEquipmentRepoNtNtNtNtCscP9pq2ikS3v_12rust_backend14infrastructure12repositories6traits19EquipmentRepository12count_searchBa_
FN:149,_RNvYNtNtNtNtCsbAAlVIUyVvW_8core_api6common5mocks14equipment_repo17MockEquipmentRepoNtNtNtNtCscP9pq2ikS3v_12rust_backend14infrastructure12repositories6traits19EquipmentRepository15count_by_ownersBa_
FN:177,_RNvYNtNtNtNtCsbAAlVIUyVvW_8core_api6common5mocks14equipment_repo17MockEquipmentRepoNtNtNtNtCscP9pq2ikS3v_12rust_backend14infrastructure12repositories6traits19EquipmentRepository19list_all_with_ownerBa_
FN:158,_RNvYNtNtNtNtCsbAAlVIUyVvW_8core_api6common5mocks14equipment_repo17MockEquipmentRepoNtNtNtNtCscP9pq2ikS3v_12rust_backend14infrastructure12repositories6traits19EquipmentRepository23set_availability_atomicBa_
FN:166,_RNvYNtNtNtNtCsbAAlVIUyVvW_8core_api6common5mocks14equipment_repo17MockEquipmentRepoNtNtNtNtCscP9pq2ikS3v_12rust_backend14infrastructure12repositories6traits19EquipmentRepository9count_allBa_
FN:63,_RNvYNtNtNtNtCsbAAlVIUyVvW_8core_api6common5mocks9user_repo12MockUserRepoNtNtNtNtCscP9pq2ikS3v_12rust_backend14infrastructure12repositories6traits14UserRepository11update_roleBa_
FN:51,_RNvYNtNtNtNtCsbAAlVIUyVvW_8core_api6common5mocks9user_repo12MockUserRepoNtNtNtNtCscP9pq2ikS3v_12rust_backend14infrastructure12repositories6traits14UserRepository8list_allBa_
FN:57,_RNvYNtNtNtNtCsbAAlVIUyVvW_8core_api6common5mocks9user_repo12MockUserRepoNtNtNtNtCscP9pq2ikS3v_12rust_backend14infrastructure12repositories6traits14UserRepository9count_allBa_
FN:234,_RNvYNtNtNtNtCsbAAlVIUyVvW_8core_api6common5mocks13category_repo16MockCategoryRepoNtNtNtNtCscP9pq2ikS3v_12rust_backend14infrastructure12repositories6traits18CategoryRepository6deleteBa_
FN:228,_RNvYNtNtNtNtCsbAAlVIUyVvW_8core_api6common5mocks13category_repo16MockCategoryRepoNtNtNtNtCscP9pq2ikS3v_12rust_backend14infrastructure12repositories6traits18CategoryRepository6updateBa_
FN:215,_RNvYNtNtNtNtCsbAAlVIUyVvW_8core_api6common5mocks13category_repo16MockCategoryRepoNtNtNtNtCscP9pq2ikS3v_12rust_backend14infrastructure12repositories6traits18CategoryRepository9count_allBa_
FN:234,_RNvYNtNtNtNtCsjGMVMRL2Dmd_16equipment_search6common5mocks13category_repo16MockCategoryRepoNtNtNtNtCscP9pq2ikS3v_12rust_backend14infrastructure12repositories6traits18CategoryRepository6deleteBa_
FN:228,_RNvYNtNtNtNtCsjGMVMRL2Dmd_16equipment_search6common5mocks13category_repo16MockCategoryRepoNtNtNtNtCscP9pq2ikS3v_12rust_backend14infrastructure12repositories6traits18CategoryRepository6updateBa_
FN:215,_RNvYNtNtNtNtCsjGMVMRL2Dmd_16equipment_search6common5mocks13category_repo16MockCategoryRepoNtNtNtNtCscP9pq2ikS3v_12rust_backend14infrastructure12repositories6traits18CategoryRepository9count_allBa_
FN:63,_RNvYNtNtNtNtCsjGMVMRL2Dmd_16equipment_search6common5mocks9user_repo12MockUserRepoNtNtNtNtCscP9pq2ikS3v_12rust_backend14infrastructure12repositories6traits14UserRepository11update_roleBa_
FN:51,_RNvYNtNtNtNtCsjGMVMRL2Dmd_16equipment_search6common5mocks9user_repo12MockUserRepoNtNtNtNtCscP9pq2ikS3v_12rust_backend14infrastructure12repositories6traits14UserRepository8list_allBa_
FN:57,_RNvYNtNtNtNtCsjGMVMRL2Dmd_16equipment_search6common5mocks9user_repo12MockUserRepoNtNtNtNtCscP9pq2ikS3v_12rust_backend14infrastructure12repositories6traits14UserRepository9count_allBa_
FN:119,_RNvYNtNtNtNtCsjGMVMRL2Dmd_16equipment_search6common5mocks14equipment_repo17MockEquipmentRepoNtNtNtNtCscP9pq2ikS3v_12rust_backend14infrastructure12repositories6traits19EquipmentRepository12count_searchBa_
FN:149,_RNvYNtNtNtNtCsjGMVMRL2Dmd_16equipment_search6common5mocks14equipment_repo17MockEquipmentRepoNtNtNtNtCscP9pq2ikS3v_12rust_backend14infrastructure12repositories6traits19EquipmentRepository15count_by_ownersBa_
FN:177,_RNvYNtNtNtNtCsjGMVMRL2Dmd_16equipment_search6common5mocks14equipment_repo17MockEquipmentRepoNtNtNtNtCscP9pq2ikS3v_12rust_backend14infrastructure12repositories6traits19EquipmentRepository19list_all_with_ownerBa_
FN:158,_RNvYNtNtNtNtCsjGMVMRL2Dmd_16equipment_search6common5mocks14equipment_repo17MockEquipmentRepoNtNtNtNtCscP9pq2ikS3v_12rust_backend14infrastructure12repositories6traits19EquipmentRepository23set_availability_atomicBa_
FN:166,_RNvYNtNtNtNtCsjGMVMRL2Dmd_16equipment_search6common5mocks14equipment_repo17MockEquipmentRepoNtNtNtNtCscP9pq2ikS3v_12rust_backend14infrastructure12repositories6traits19EquipmentRepository9count_allBa_
FN:109,_RNvYNtNtCskyJl6Vswmkw_22repository_integration15traits_defaults22EquipmentRepositorySpyNtNtNtNtCscP9pq2ikS3v_12rust_backend14infrastructure12repositories6traits19EquipmentRepository6searchB6_
FN:204,_RNvYNtNtCskyJl6Vswmkw_22repository_integration15traits_defaults29MessageRepositoryDefaultsOnlyNtNtNtNtCscP9pq2ikS3v_12rust_backend14infrastructure12repositories6traits17MessageRepository20find_participant_idsB6_
FN:119,_RNvYNtNtCskyJl6Vswmkw_22repository_integration15traits_defaults40EquipmentRepositoryCountSearchLimitGuardNtNtNtNtCscP9pq2ikS3v_12rust_backend14infrastructure12repositories6traits19EquipmentRepository12count_searchB6_
FN:63,_RNvYNtNtNtNtNtCs4kTbYauoumE_12rust_backend3api6routes2ws5tests12NoopUserRepoNtNtNtNtBc_14infrastructure12repositories6traits14UserRepository11update_roleBc_
FN:51,_RNvYNtNtNtNtNtCs4kTbYauoumE_12rust_backend3api6routes2ws5tests12NoopUserRepoNtNtNtNtBc_14infrastructure12repositories6traits14UserRepository8list_allBc_
FN:57,_RNvYNtNtNtNtNtCs4kTbYauoumE_12rust_backend3api6routes2ws5tests12NoopUserRepoNtNtNtNtBc_14infrastructure12repositories6traits14UserRepository9count_allBc_
FN:204,_RNvYNtNtNtNtNtCs4kTbYauoumE_12rust_backend3api6routes2ws5tests15NoopMessageRepoNtNtNtNtBc_14infrastructure12repositories6traits17MessageRepository20find_participant_idsBc_
FN:222,_RNvYNtNtNtNtNtCs4kTbYauoumE_12rust_backend3api6routes2ws5tests16NoopCategoryRepoNtNtNtNtBc_14infrastructure12repositories6traits18CategoryRepository6createBc_
FN:234,_RNvYNtNtNtNtNtCs4kTbYauoumE_12rust_backend3api6routes2ws5tests16NoopCategoryRepoNtNtNtNtBc_14infrastructure12repositories6traits18CategoryRepository6deleteBc_
FN:228,_RNvYNtNtNtNtNtCs4kTbYauoumE_12rust_backend3api6routes2ws5tests16NoopCategoryRepoNtNtNtNtBc_14infrastructure12repositories6traits18CategoryRepository6updateBc_
FN:215,_RNvYNtNtNtNtNtCs4kTbYauoumE_12rust_backend3api6routes2ws5tests16NoopCategoryRepoNtNtNtNtBc_14infrastructure12repositories6traits18CategoryRepository9count_allBc_
FN:119,_RNvYNtNtNtNtNtCs4kTbYauoumE_12rust_backend3api6routes2ws5tests17NoopEquipmentRepoNtNtNtNtBc_14infrastructure12repositories6traits19EquipmentRepository12count_searchBc_
FN:149,_RNvYNtNtNtNtNtCs4kTbYauoumE_12rust_backend3api6routes2ws5tests17NoopEquipmentRepoNtNtNtNtBc_14infrastructure12repositories6traits19EquipmentRepository15count_by_ownersBc_
FN:177,_RNvYNtNtNtNtNtCs4kTbYauoumE_12rust_backend3api6routes2ws5tests17NoopEquipmentRepoNtNtNtNtBc_14infrastructure12repositories6traits19EquipmentRepository19list_all_with_ownerBc_
FN:158,_RNvYNtNtNtNtNtCs4kTbYauoumE_12rust_backend3api6routes2ws5tests17NoopEquipmentRepoNtNtNtNtBc_14infrastructure12repositories6traits19EquipmentRepository23set_availability_atomicBc_
FN:109,_RNvYNtNtNtNtNtCs4kTbYauoumE_12rust_backend3api6routes2ws5tests17NoopEquipmentRepoNtNtNtNtBc_14infrastructure12repositories6traits19EquipmentRepository6searchBc_
FN:166,_RNvYNtNtNtNtNtCs4kTbYauoumE_12rust_backend3api6routes2ws5tests17NoopEquipmentRepoNtNtNtNtBc_14infrastructure12repositories6traits19EquipmentRepository9count_allBc_
FN:143,_RNvYpNtNtNtNtCs4kTbYauoumE_12rust_backend14infrastructure12repositories6traits19EquipmentRepository14count_by_ownerBb_
FN:26,_RNvMNtNtNtCs4kTbYauoumE_12rust_backend14infrastructure12repositories6traitsNtB2_21EquipmentSearchParams11has_filters
FN:63,_RNvYNtNtNtNtCsgQTxU6SKUMu_8services6common5mocks9user_repo12MockUserRepoNtNtNtNtCscP9pq2ikS3v_12rust_backend14infrastructure12repositories6traits14UserRepository11update_roleBa_
FN:51,_RNvYNtNtNtNtCsgQTxU6SKUMu_8services6common5mocks9user_repo12MockUserRepoNtNtNtNtCscP9pq2ikS3v_12rust_backend14infrastructure12repositories6traits14UserRepository8list_allBa_
FN:57,_RNvYNtNtNtNtCsgQTxU6SKUMu_8services6common5mocks9user_repo12MockUserRepoNtNtNtNtCscP9pq2ikS3v_12rust_backend14infrastructure12repositories6traits14UserRepository9count_allBa_
FN:234,_RNvYNtNtNtNtCsgQTxU6SKUMu_8services6common5mocks13category_repo16MockCategoryRepoNtNtNtNtCscP9pq2ikS3v_12rust_backend14infrastructure12repositories6traits18CategoryRepository6deleteBa_
FN:228,_RNvYNtNtNtNtCsgQTxU6SKUMu_8services6common5mocks13category_repo16MockCategoryRepoNtNtNtNtCscP9pq2ikS3v_12rust_backend14infrastructure12repositories6traits18CategoryRepository6updateBa_
FN:215,_RNvYNtNtNtNtCsgQTxU6SKUMu_8services6common5mocks13category_repo16MockCategoryRepoNtNtNtNtCscP9pq2ikS3v_12rust_backend14infrastructure12repositories6traits18CategoryRepository9count_allBa_
FN:119,_RNvYNtNtNtNtCsgQTxU6SKUMu_8services6common5mocks14equipment_repo17MockEquipmentRepoNtNtNtNtCscP9pq2ikS3v_12rust_backend14infrastructure12repositories6traits19EquipmentRepository12count_searchBa_
FN:149,_RNvYNtNtNtNtCsgQTxU6SKUMu_8services6common5mocks14equipment_repo17MockEquipmentRepoNtNtNtNtCscP9pq2ikS3v_12rust_backend14infrastructure12repositories6traits19EquipmentRepository15count_by_ownersBa_
FN:177,_RNvYNtNtNtNtCsgQTxU6SKUMu_8services6common5mocks14equipment_repo17MockEquipmentRepoNtNtNtNtCscP9pq2ikS3v_12rust_backend14infrastructure12repositories6traits19EquipmentRepository19list_all_with_ownerBa_
FN:158,_RNvYNtNtNtNtCsgQTxU6SKUMu_8services6common5mocks14equipment_repo17MockEquipmentRepoNtNtNtNtCscP9pq2ikS3v_12rust_backend14infrastructure12repositories6traits19EquipmentRepository23set_availability_atomicBa_
FN:166,_RNvYNtNtNtNtCsgQTxU6SKUMu_8services6common5mocks14equipment_repo17MockEquipmentRepoNtNtNtNtCscP9pq2ikS3v_12rust_backend14infrastructure12repositories6traits19EquipmentRepository9count_allBa_
FNDA:0,_RNvYNtNtNtNtCskYAENjhi0NG_15auth0_endpoints6common5mocks9user_repo12MockUserRepoNtNtNtNtCscP9pq2ikS3v_12rust_backend14infrastructure12repositories6traits14UserRepository11update_roleBa_
FNDA:0,_RNvYNtNtNtNtCskYAENjhi0NG_15auth0_endpoints6common5mocks9user_repo12MockUserRepoNtNtNtNtCscP9pq2ikS3v_12rust_backend14infrastructure12repositories6traits14UserRepository8list_allBa_
FNDA:0,_RNvYNtNtNtNtCskYAENjhi0NG_15auth0_endpoints6common5mocks9user_repo12MockUserRepoNtNtNtNtCscP9pq2ikS3v_12rust_backend14infrastructure12repositories6traits14UserRepository9count_allBa_
FNDA:0,_RNvYNtNtNtNtCskYAENjhi0NG_15auth0_endpoints6common5mocks14equipment_repo17MockEquipmentRepoNtNtNtNtCscP9pq2ikS3v_12rust_backend14infrastructure12repositories6traits19EquipmentRepository12count_searchBa_
FNDA:0,_RNvYNtNtNtNtCskYAENjhi0NG_15auth0_endpoints6common5mocks14equipment_repo17MockEquipmentRepoNtNtNtNtCscP9pq2ikS3v_12rust_backend14infrastructure12repositories6traits19EquipmentRepository15count_by_ownersBa_
FNDA:0,_RNvYNtNtNtNtCskYAENjhi0NG_15auth0_endpoints6common5mocks14equipment_repo17MockEquipmentRepoNtNtNtNtCscP9pq2ikS3v_12rust_backend14infrastructure12repositories6traits19EquipmentRepository19list_all_with_ownerBa_
FNDA:0,_RNvYNtNtNtNtCskYAENjhi0NG_15auth0_endpoints6common5mocks14equipment_repo17MockEquipmentRepoNtNtNtNtCscP9pq2ikS3v_12rust_backend14infrastructure12repositories6traits19EquipmentRepository23set_availability_atomicBa_
FNDA:0,_RNvYNtNtNtNtCskYAENjhi0NG_15auth0_endpoints6common5mocks14equipment_repo17MockEquipmentRepoNtNtNtNtCscP9pq2ikS3v_12rust_backend14infrastructure12repositories6traits19EquipmentRepository9count_allBa_
FNDA:0,_RNvYNtNtNtNtCskYAENjhi0NG_15auth0_endpoints6common5mocks13category_repo16MockCategoryRepoNtNtNtNtCscP9pq2ikS3v_12rust_backend14infrastructure12repositories6traits18CategoryRepository6deleteBa_
FNDA:0,_RNvYNtNtNtNtCskYAENjhi0NG_15auth0_endpoints6common5mocks13category_repo16MockCategoryRepoNtNtNtNtCscP9pq2ikS3v_12rust_backend14infrastructure12repositories6traits18CategoryRepository6updateBa_
FNDA:0,_RNvYNtNtNtNtCskYAENjhi0NG_15auth0_endpoints6common5mocks13category_repo16MockCategoryRepoNtNtNtNtCscP9pq2ikS3v_12rust_backend14infrastructure12repositories6traits18CategoryRepository9count_allBa_
FNDA:0,_RNvYpNtNtNtNtCscP9pq2ikS3v_12rust_backend14infrastructure12repositories6traits14UserRepository11update_roleBb_
FNDA:0,_RNvYpNtNtNtNtCscP9pq2ikS3v_12rust_backend14infrastructure12repositories6traits14UserRepository8list_allBb_
FNDA:0,_RNvYpNtNtNtNtCscP9pq2ikS3v_12rust_backend14infrastructure12repositories6traits14UserRepository9count_allBb_
FNDA:0,_RNvYpNtNtNtNtCscP9pq2ikS3v_12rust_backend14infrastructure12repositories6traits17MessageRepository20find_participant_idsBb_
FNDA:0,_RNvYpNtNtNtNtCscP9pq2ikS3v_12rust_backend14infrastructure12repositories6traits18CategoryRepository6createBb_
FNDA:0,_RNvYpNtNtNtNtCscP9pq2ikS3v_12rust_backend14infrastructure12repositories6traits18CategoryRepository6deleteBb_
FNDA:0,_RNvYpNtNtNtNtCscP9pq2ikS3v_12rust_backend14infrastructure12repositories6traits18CategoryRepository6updateBb_
FNDA:0,_RNvYpNtNtNtNtCscP9pq2ikS3v_12rust_backend14infrastructure12repositories6traits18CategoryRepository9count_allBb_
FNDA:0,_RNvYpNtNtNtNtCscP9pq2ikS3v_12rust_backend14infrastructure12repositories6traits19EquipmentRepository12count_searchBb_
FNDA:0,_RNvYpNtNtNtNtCscP9pq2ikS3v_12rust_backend14infrastructure12repositories6traits19EquipmentRepository14count_by_ownerBb_
FNDA:0,_RNvYpNtNtNtNtCscP9pq2ikS3v_12rust_backend14infrastructure12repositories6traits19EquipmentRepository15count_by_ownersBb_
FNDA:0,_RNvYpNtNtNtNtCscP9pq2ikS3v_12rust_backend14infrastructure12repositories6traits19EquipmentRepository19list_all_with_ownerBb_
FNDA:0,_RNvYpNtNtNtNtCscP9pq2ikS3v_12rust_backend14infrastructure12repositories6traits19EquipmentRepository23set_availability_atomicBb_
FNDA:0,_RNvYpNtNtNtNtCscP9pq2ikS3v_12rust_backend14infrastructure12repositories6traits19EquipmentRepository6searchBb_
FNDA:0,_RNvYpNtNtNtNtCscP9pq2ikS3v_12rust_backend14infrastructure12repositories6traits19EquipmentRepository9count_allBb_
FNDA:0,_RNvMNtNtNtCscP9pq2ikS3v_12rust_backend14infrastructure12repositories6traitsNtB2_21EquipmentSearchParams11has_filters
FNDA:0,_RNvYNtNtNtNtCs1ivKQgclqdJ_15auth_middleware6common5mocks9user_repo12MockUserRepoNtNtNtNtCscP9pq2ikS3v_12rust_backend14infrastructure12repositories6traits14UserRepository11update_roleBa_
FNDA:0,_RNvYNtNtNtNtCs1ivKQgclqdJ_15auth_middleware6common5mocks9user_repo12MockUserRepoNtNtNtNtCscP9pq2ikS3v_12rust_backend14infrastructure12repositories6traits14UserRepository8list_allBa_
FNDA:0,_RNvYNtNtNtNtCs1ivKQgclqdJ_15auth_middleware6common5mocks9user_repo12MockUserRepoNtNtNtNtCscP9pq2ikS3v_12rust_backend14infrastructure12repositories6traits14UserRepository9count_allBa_
FNDA:0,_RNvYNtNtNtNtCsbAAlVIUyVvW_8core_api6common5mocks14equipment_repo17MockEquipmentRepoNtNtNtNtCscP9pq2ikS3v_12rust_backend14infrastructure12repositories6traits19EquipmentRepository12count_searchBa_
FNDA:0,_RNvYNtNtNtNtCsbAAlVIUyVvW_8core_api6common5mocks14equipment_repo17MockEquipmentRepoNtNtNtNtCscP9pq2ikS3v_12rust_backend14infrastructure12repositories6traits19EquipmentRepository15count_by_ownersBa_
FNDA:0,_RNvYNtNtNtNtCsbAAlVIUyVvW_8core_api6common5mocks14equipment_repo17MockEquipmentRepoNtNtNtNtCscP9pq2ikS3v_12rust_backend14infrastructure12repositories6traits19EquipmentRepository19list_all_with_ownerBa_
FNDA:0,_RNvYNtNtNtNtCsbAAlVIUyVvW_8core_api6common5mocks14equipment_repo17MockEquipmentRepoNtNtNtNtCscP9pq2ikS3v_12rust_backend14infrastructure12repositories6traits19EquipmentRepository23set_availability_atomicBa_
FNDA:0,_RNvYNtNtNtNtCsbAAlVIUyVvW_8core_api6common5mocks14equipment_repo17MockEquipmentRepoNtNtNtNtCscP9pq2ikS3v_12rust_backend14infrastructure12repositories6traits19EquipmentRepository9count_allBa_
FNDA:0,_RNvYNtNtNtNtCsbAAlVIUyVvW_8core_api6common5mocks9user_repo12MockUserRepoNtNtNtNtCscP9pq2ikS3v_12rust_backend14infrastructure12repositories6traits14UserRepository11update_roleBa_
FNDA:0,_RNvYNtNtNtNtCsbAAlVIUyVvW_8core_api6common5mocks9user_repo12MockUserRepoNtNtNtNtCscP9pq2ikS3v_12rust_backend14infrastructure12repositories6traits14UserRepository8list_allBa_
FNDA:0,_RNvYNtNtNtNtCsbAAlVIUyVvW_8core_api6common5mocks9user_repo12MockUserRepoNtNtNtNtCscP9pq2ikS3v_12rust_backend14infrastructure12repositories6traits14UserRepository9count_allBa_
FNDA:0,_RNvYNtNtNtNtCsbAAlVIUyVvW_8core_api6common5mocks13category_repo16MockCategoryRepoNtNtNtNtCscP9pq2ikS3v_12rust_backend14infrastructure12repositories6traits18CategoryRepository6deleteBa_
FNDA:0,_RNvYNtNtNtNtCsbAAlVIUyVvW_8core_api6common5mocks13category_repo16MockCategoryRepoNtNtNtNtCscP9pq2ikS3v_12rust_backend14infrastructure12repositories6traits18CategoryRepository6updateBa_
FNDA:0,_RNvYNtNtNtNtCsbAAlVIUyVvW_8core_api6common5mocks13category_repo16MockCategoryRepoNtNtNtNtCscP9pq2ikS3v_12rust_backend14infrastructure12repositories6traits18CategoryRepository9count_allBa_
FNDA:0,_RNvYNtNtNtNtCsjGMVMRL2Dmd_16equipment_search6common5mocks13category_repo16MockCategoryRepoNtNtNtNtCscP9pq2ikS3v_12rust_backend14infrastructure12repositories6traits18CategoryRepository6deleteBa_
FNDA:0,_RNvYNtNtNtNtCsjGMVMRL2Dmd_16equipment_search6common5mocks13category_repo16MockCategoryRepoNtNtNtNtCscP9pq2ikS3v_12rust_backend14infrastructure12repositories6traits18CategoryRepository6updateBa_
FNDA:0,_RNvYNtNtNtNtCsjGMVMRL2Dmd_16equipment_search6common5mocks13category_repo16MockCategoryRepoNtNtNtNtCscP9pq2ikS3v_12rust_backend14infrastructure12repositories6traits18CategoryRepository9count_allBa_
FNDA:0,_RNvYNtNtNtNtCsjGMVMRL2Dmd_16equipment_search6common5mocks9user_repo12MockUserRepoNtNtNtNtCscP9pq2ikS3v_12rust_backend14infrastructure12repositories6traits14UserRepository11update_roleBa_
FNDA:0,_RNvYNtNtNtNtCsjGMVMRL2Dmd_16equipment_search6common5mocks9user_repo12MockUserRepoNtNtNtNtCscP9pq2ikS3v_12rust_backend14infrastructure12repositories6traits14UserRepository8list_allBa_
FNDA:0,_RNvYNtNtNtNtCsjGMVMRL2Dmd_16equipment_search6common5mocks9user_repo12MockUserRepoNtNtNtNtCscP9pq2ikS3v_12rust_backend14infrastructure12repositories6traits14UserRepository9count_allBa_
FNDA:0,_RNvYNtNtNtNtCsjGMVMRL2Dmd_16equipment_search6common5mocks14equipment_repo17MockEquipmentRepoNtNtNtNtCscP9pq2ikS3v_12rust_backend14infrastructure12repositories6traits19EquipmentRepository12count_searchBa_
FNDA:0,_RNvYNtNtNtNtCsjGMVMRL2Dmd_16equipment_search6common5mocks14equipment_repo17MockEquipmentRepoNtNtNtNtCscP9pq2ikS3v_12rust_backend14infrastructure12repositories6traits19EquipmentRepository15count_by_ownersBa_
FNDA:0,_RNvYNtNtNtNtCsjGMVMRL2Dmd_16equipment_search6common5mocks14equipment_repo17MockEquipmentRepoNtNtNtNtCscP9pq2ikS3v_12rust_backend14infrastructure12repositories6traits19EquipmentRepository19list_all_with_ownerBa_
FNDA:0,_RNvYNtNtNtNtCsjGMVMRL2Dmd_16equipment_search6common5mocks14equipment_repo17MockEquipmentRepoNtNtNtNtCscP9pq2ikS3v_12rust_backend14infrastructure12repositories6traits19EquipmentRepository23set_availability_atomicBa_
FNDA:0,_RNvYNtNtNtNtCsjGMVMRL2Dmd_16equipment_search6common5mocks14equipment_repo17MockEquipmentRepoNtNtNtNtCscP9pq2ikS3v_12rust_backend14infrastructure12repositories6traits19EquipmentRepository9count_allBa_
FNDA:0,_RNvYNtNtCskyJl6Vswmkw_22repository_integration15traits_defaults22EquipmentRepositorySpyNtNtNtNtCscP9pq2ikS3v_12rust_backend14infrastructure12repositories6traits19EquipmentRepository6searchB6_
FNDA:0,_RNvYNtNtCskyJl6Vswmkw_22repository_integration15traits_defaults29MessageRepositoryDefaultsOnlyNtNtNtNtCscP9pq2ikS3v_12rust_backend14infrastructure12repositories6traits17MessageRepository20find_participant_idsB6_
FNDA:0,_RNvYNtNtCskyJl6Vswmkw_22repository_integration15traits_defaults40EquipmentRepositoryCountSearchLimitGuardNtNtNtNtCscP9pq2ikS3v_12rust_backend14infrastructure12repositories6traits19EquipmentRepository12count_searchB6_
FNDA:0,_RNvYNtNtNtNtNtCs4kTbYauoumE_12rust_backend3api6routes2ws5tests12NoopUserRepoNtNtNtNtBc_14infrastructure12repositories6traits14UserRepository11update_roleBc_
FNDA:0,_RNvYNtNtNtNtNtCs4kTbYauoumE_12rust_backend3api6routes2ws5tests12NoopUserRepoNtNtNtNtBc_14infrastructure12repositories6traits14UserRepository8list_allBc_
FNDA:0,_RNvYNtNtNtNtNtCs4kTbYauoumE_12rust_backend3api6routes2ws5tests12NoopUserRepoNtNtNtNtBc_14infrastructure12repositories6traits14UserRepository9count_allBc_
FNDA:0,_RNvYNtNtNtNtNtCs4kTbYauoumE_12rust_backend3api6routes2ws5tests15NoopMessageRepoNtNtNtNtBc_14infrastructure12repositories6traits17MessageRepository20find_participant_idsBc_
FNDA:0,_RNvYNtNtNtNtNtCs4kTbYauoumE_12rust_backend3api6routes2ws5tests16NoopCategoryRepoNtNtNtNtBc_14infrastructure12repositories6traits18CategoryRepository6createBc_
FNDA:0,_RNvYNtNtNtNtNtCs4kTbYauoumE_12rust_backend3api6routes2ws5tests16NoopCategoryRepoNtNtNtNtBc_14infrastructure12repositories6traits18CategoryRepository6deleteBc_
FNDA:0,_RNvYNtNtNtNtNtCs4kTbYauoumE_12rust_backend3api6routes2ws5tests16NoopCategoryRepoNtNtNtNtBc_14infrastructure12repositories6traits18CategoryRepository6updateBc_
FNDA:0,_RNvYNtNtNtNtNtCs4kTbYauoumE_12rust_backend3api6routes2ws5tests16NoopCategoryRepoNtNtNtNtBc_14infrastructure12repositories6traits18CategoryRepository9count_allBc_
FNDA:0,_RNvYNtNtNtNtNtCs4kTbYauoumE_12rust_backend3api6routes2ws5tests17NoopEquipmentRepoNtNtNtNtBc_14infrastructure12repositories6traits19EquipmentRepository12count_searchBc_
FNDA:0,_RNvYNtNtNtNtNtCs4kTbYauoumE_12rust_backend3api6routes2ws5tests17NoopEquipmentRepoNtNtNtNtBc_14infrastructure12repositories6traits19EquipmentRepository15count_by_ownersBc_
FNDA:0,_RNvYNtNtNtNtNtCs4kTbYauoumE_12rust_backend3api6routes2ws5tests17NoopEquipmentRepoNtNtNtNtBc_14infrastructure12repositories6traits19EquipmentRepository19list_all_with_ownerBc_
FNDA:0,_RNvYNtNtNtNtNtCs4kTbYauoumE_12rust_backend3api6routes2ws5tests17NoopEquipmentRepoNtNtNtNtBc_14infrastructure12repositories6traits19EquipmentRepository23set_availability_atomicBc_
FNDA:0,_RNvYNtNtNtNtNtCs4kTbYauoumE_12rust_backend3api6routes2ws5tests17NoopEquipmentRepoNtNtNtNtBc_14infrastructure12repositories6traits19EquipmentRepository6searchBc_
FNDA:0,_RNvYNtNtNtNtNtCs4kTbYauoumE_12rust_backend3api6routes2ws5tests17NoopEquipmentRepoNtNtNtNtBc_14infrastructure12repositories6traits19EquipmentRepository9count_allBc_
FNDA:0,_RNvYpNtNtNtNtCs4kTbYauoumE_12rust_backend14infrastructure12repositories6traits19EquipmentRepository14count_by_ownerBb_
FNDA:0,_RNvMNtNtNtCs4kTbYauoumE_12rust_backend14infrastructure12repositories6traitsNtB2_21EquipmentSearchParams11has_filters
FNDA:0,_RNvYNtNtNtNtCsgQTxU6SKUMu_8services6common5mocks9user_repo12MockUserRepoNtNtNtNtCscP9pq2ikS3v_12rust_backend14infrastructure12repositories6traits14UserRepository11update_roleBa_
FNDA:0,_RNvYNtNtNtNtCsgQTxU6SKUMu_8services6common5mocks9user_repo12MockUserRepoNtNtNtNtCscP9pq2ikS3v_12rust_backend14infrastructure12repositories6traits14UserRepository8list_allBa_
FNDA:0,_RNvYNtNtNtNtCsgQTxU6SKUMu_8services6common5mocks9user_repo12MockUserRepoNtNtNtNtCscP9pq2ikS3v_12rust_backend14infrastructure12repositories6traits14UserRepository9count_allBa_
FNDA:0,_RNvYNtNtNtNtCsgQTxU6SKUMu_8services6common5mocks13category_repo16MockCategoryRepoNtNtNtNtCscP9pq2ikS3v_12rust_backend14infrastructure12repositories6traits18CategoryRepository6deleteBa_
FNDA:0,_RNvYNtNtNtNtCsgQTxU6SKUMu_8services6common5mocks13category_repo16MockCategoryRepoNtNtNtNtCscP9pq2ikS3v_12rust_backend14infrastructure12repositories6traits18CategoryRepository6updateBa_
FNDA:0,_RNvYNtNtNtNtCsgQTxU6SKUMu_8services6common5mocks13category_repo16MockCategoryRepoNtNtNtNtCscP9pq2ikS3v_12rust_backend14infrastructure12repositories6traits18CategoryRepository9count_allBa_
FNDA:0,_RNvYNtNtNtNtCsgQTxU6SKUMu_8services6common5mocks14equipment_repo17MockEquipmentRepoNtNtNtNtCscP9pq2ikS3v_12rust_backend14infrastructure12repositories6traits19EquipmentRepository12count_searchBa_
FNDA:0,_RNvYNtNtNtNtCsgQTxU6SKUMu_8services6common5mocks14equipment_repo17MockEquipmentRepoNtNtNtNtCscP9pq2ikS3v_12rust_backend14infrastructure12repositories6traits19EquipmentRepository15count_by_ownersBa_
FNDA:0,_RNvYNtNtNtNtCsgQTxU6SKUMu_8services6common5mocks14equipment_repo17MockEquipmentRepoNtNtNtNtCscP9pq2ikS3v_12rust_backend14infrastructure12repositories6traits19EquipmentRepository19list_all_with_ownerBa_
FNDA:0,_RNvYNtNtNtNtCsgQTxU6SKUMu_8services6common5mocks14equipment_repo17MockEquipmentRepoNtNtNtNtCscP9pq2ikS3v_12rust_backend14infrastructure12repositories6traits19EquipmentRepository23set_availability_atomicBa_
FNDA:0,_RNvYNtNtNtNtCsgQTxU6SKUMu_8services6common5mocks14equipment_repo17MockEquipmentRepoNtNtNtNtCscP9pq2ikS3v_12rust_backend14infrastructure12repositories6traits19EquipmentRepository9count_allBa_
FNF:16
FNH:0
DA:26,0
DA:27,0
DA:28,0
DA:29,0
DA:30,0
DA:31,0
DA:32,0
DA:33,0
DA:34,0
DA:51,0
DA:56,0
DA:57,0
DA:62,0
DA:63,0
DA:68,0
DA:109,0
DA:118,0
DA:119,0
DA:136,0
DA:143,0
DA:148,0
DA:149,0
DA:155,0
DA:158,0
DA:164,0
DA:166,0
DA:171,0
DA:177,0
DA:182,0
DA:204,0
DA:206,0
DA:215,0
DA:219,0
DA:222,0
DA:223,0
DA:227,0
DA:228,0
DA:229,0
DA:233,0
DA:234,0
DA:239,0
BRF:0
BRH:0
LF:41
LH:0
end_of_record
SF:/Users/mykolborghese/rust-backend/src/infrastructure/repositories/user_repository.rs
FN:14,_RNvMNtNtNtCscP9pq2ikS3v_12rust_backend14infrastructure12repositories15user_repositoryNtB2_18UserRepositoryImpl3new
FN:166,_RNvMs_NtNtNtCscP9pq2ikS3v_12rust_backend14infrastructure12repositories15user_repositoryNtB4_18AuthRepositoryImpl3new
FN:21,_RNvXs0_NtNtNtCscP9pq2ikS3v_12rust_backend14infrastructure12repositories15user_repositoryNtB5_18UserRepositoryImplNtNtB7_6traits14UserRepository10find_by_id
FN:144,_RNvXs0_NtNtNtCscP9pq2ikS3v_12rust_backend14infrastructure12repositories15user_repositoryNtB5_18UserRepositoryImplNtNtB7_6traits14UserRepository11update_role
FN:31,_RNvXs0_NtNtNtCscP9pq2ikS3v_12rust_backend14infrastructure12repositories15user_repositoryNtB5_18UserRepositoryImplNtNtB7_6traits14UserRepository13find_by_email
FN:41,_RNvXs0_NtNtNtCscP9pq2ikS3v_12rust_backend14infrastructure12repositories15user_repositoryNtB5_18UserRepositoryImplNtNtB7_6traits14UserRepository16find_by_username
FN:51,_RNvXs0_NtNtNtCscP9pq2ikS3v_12rust_backend14infrastructure12repositories15user_repositoryNtB5_18UserRepositoryImplNtNtB7_6traits14UserRepository6create
FN:92,_RNvXs0_NtNtNtCscP9pq2ikS3v_12rust_backend14infrastructure12repositories15user_repositoryNtB5_18UserRepositoryImplNtNtB7_6traits14UserRepository6delete
FN:72,_RNvXs0_NtNtNtCscP9pq2ikS3v_12rust_backend14infrastructure12repositories15user_repositoryNtB5_18UserRepositoryImplNtNtB7_6traits14UserRepository6update
FN:106,_RNvXs0_NtNtNtCscP9pq2ikS3v_12rust_backend14infrastructure12repositories15user_repositoryNtB5_18UserRepositoryImplNtNtB7_6traits14UserRepository8list_all
FN:127,_RNvXs0_NtNtNtCscP9pq2ikS3v_12rust_backend14infrastructure12repositories15user_repositoryNtB5_18UserRepositoryImplNtNtB7_6traits14UserRepository9count_all
FN:173,_RNvXs1_NtNtNtCscP9pq2ikS3v_12rust_backend14infrastructure12repositories15user_repositoryNtB5_18AuthRepositoryImplNtNtB7_6traits14AuthRepository15create_identity
FN:223,_RNvXs1_NtNtNtCscP9pq2ikS3v_12rust_backend14infrastructure12repositories15user_repositoryNtB5_18AuthRepositoryImplNtNtB7_6traits14AuthRepository15upsert_identity
FN:197,_RNvXs1_NtNtNtCscP9pq2ikS3v_12rust_backend14infrastructure12repositories15user_repositoryNtB5_18AuthRepositoryImplNtNtB7_6traits14AuthRepository24find_identity_by_user_id
FN:212,_RNvXs1_NtNtNtCscP9pq2ikS3v_12rust_backend14infrastructure12repositories15user_repositoryNtB5_18AuthRepositoryImplNtNtB7_6traits14AuthRepository28find_identity_by_provider_id
FN:157,_RNCNCNvXs0_NtNtNtCscP9pq2ikS3v_12rust_backend14infrastructure12repositories15user_repositoryNtB9_18UserRepositoryImplNtNtBb_6traits14UserRepository11update_role00Bf_
FN:157,_RNCNCNvXs0_NtNtNtCs4kTbYauoumE_12rust_backend14infrastructure12repositories15user_repositoryNtB9_18UserRepositoryImplNtNtBb_6traits14UserRepository11update_role00Bf_
FN:14,_RNvMNtNtNtCs4kTbYauoumE_12rust_backend14infrastructure12repositories15user_repositoryNtB2_18UserRepositoryImpl3new
FN:166,_RNvMs_NtNtNtCs4kTbYauoumE_12rust_backend14infrastructure12repositories15user_repositoryNtB4_18AuthRepositoryImpl3new
FN:21,_RNvXs0_NtNtNtCs4kTbYauoumE_12rust_backend14infrastructure12repositories15user_repositoryNtB5_18UserRepositoryImplNtNtB7_6traits14UserRepository10find_by_id
FN:144,_RNvXs0_NtNtNtCs4kTbYauoumE_12rust_backend14infrastructure12repositories15user_repositoryNtB5_18UserRepositoryImplNtNtB7_6traits14UserRepository11update_role
FN:31,_RNvXs0_NtNtNtCs4kTbYauoumE_12rust_backend14infrastructure12repositories15user_repositoryNtB5_18UserRepositoryImplNtNtB7_6traits14UserRepository13find_by_email
FN:41,_RNvXs0_NtNtNtCs4kTbYauoumE_12rust_backend14infrastructure12repositories15user_repositoryNtB5_18UserRepositoryImplNtNtB7_6traits14UserRepository16find_by_username
FN:51,_RNvXs0_NtNtNtCs4kTbYauoumE_12rust_backend14infrastructure12repositories15user_repositoryNtB5_18UserRepositoryImplNtNtB7_6traits14UserRepository6create
FN:92,_RNvXs0_NtNtNtCs4kTbYauoumE_12rust_backend14infrastructure12repositories15user_repositoryNtB5_18UserRepositoryImplNtNtB7_6traits14UserRepository6delete
FN:72,_RNvXs0_NtNtNtCs4kTbYauoumE_12rust_backend14infrastructure12repositories15user_repositoryNtB5_18UserRepositoryImplNtNtB7_6traits14UserRepository6update
FN:106,_RNvXs0_NtNtNtCs4kTbYauoumE_12rust_backend14infrastructure12repositories15user_repositoryNtB5_18UserRepositoryImplNtNtB7_6traits14UserRepository8list_all
FN:127,_RNvXs0_NtNtNtCs4kTbYauoumE_12rust_backend14infrastructure12repositories15user_repositoryNtB5_18UserRepositoryImplNtNtB7_6traits14UserRepository9count_all
FN:173,_RNvXs1_NtNtNtCs4kTbYauoumE_12rust_backend14infrastructure12repositories15user_repositoryNtB5_18AuthRepositoryImplNtNtB7_6traits14AuthRepository15create_identity
FN:223,_RNvXs1_NtNtNtCs4kTbYauoumE_12rust_backend14infrastructure12repositories15user_repositoryNtB5_18AuthRepositoryImplNtNtB7_6traits14AuthRepository15upsert_identity
FN:197,_RNvXs1_NtNtNtCs4kTbYauoumE_12rust_backend14infrastructure12repositories15user_repositoryNtB5_18AuthRepositoryImplNtNtB7_6traits14AuthRepository24find_identity_by_user_id
FN:212,_RNvXs1_NtNtNtCs4kTbYauoumE_12rust_backend14infrastructure12repositories15user_repositoryNtB5_18AuthRepositoryImplNtNtB7_6traits14AuthRepository28find_identity_by_provider_id
FNDA:0,_RNvMNtNtNtCscP9pq2ikS3v_12rust_backend14infrastructure12repositories15user_repositoryNtB2_18UserRepositoryImpl3new
FNDA:0,_RNvMs_NtNtNtCscP9pq2ikS3v_12rust_backend14infrastructure12repositories15user_repositoryNtB4_18AuthRepositoryImpl3new
FNDA:0,_RNvXs0_NtNtNtCscP9pq2ikS3v_12rust_backend14infrastructure12repositories15user_repositoryNtB5_18UserRepositoryImplNtNtB7_6traits14UserRepository10find_by_id
FNDA:0,_RNvXs0_NtNtNtCscP9pq2ikS3v_12rust_backend14infrastructure12repositories15user_repositoryNtB5_18UserRepositoryImplNtNtB7_6traits14UserRepository11update_role
FNDA:0,_RNvXs0_NtNtNtCscP9pq2ikS3v_12rust_backend14infrastructure12repositories15user_repositoryNtB5_18UserRepositoryImplNtNtB7_6traits14UserRepository13find_by_email
FNDA:0,_RNvXs0_NtNtNtCscP9pq2ikS3v_12rust_backend14infrastructure12repositories15user_repositoryNtB5_18UserRepositoryImplNtNtB7_6traits14UserRepository16find_by_username
FNDA:0,_RNvXs0_NtNtNtCscP9pq2ikS3v_12rust_backend14infrastructure12repositories15user_repositoryNtB5_18UserRepositoryImplNtNtB7_6traits14UserRepository6create
FNDA:0,_RNvXs0_NtNtNtCscP9pq2ikS3v_12rust_backend14infrastructure12repositories15user_repositoryNtB5_18UserRepositoryImplNtNtB7_6traits14UserRepository6delete
FNDA:0,_RNvXs0_NtNtNtCscP9pq2ikS3v_12rust_backend14infrastructure12repositories15user_repositoryNtB5_18UserRepositoryImplNtNtB7_6traits14UserRepository6update
FNDA:0,_RNvXs0_NtNtNtCscP9pq2ikS3v_12rust_backend14infrastructure12repositories15user_repositoryNtB5_18UserRepositoryImplNtNtB7_6traits14UserRepository8list_all
FNDA:0,_RNvXs0_NtNtNtCscP9pq2ikS3v_12rust_backend14infrastructure12repositories15user_repositoryNtB5_18UserRepositoryImplNtNtB7_6traits14UserRepository9count_all
FNDA:0,_RNvXs1_NtNtNtCscP9pq2ikS3v_12rust_backend14infrastructure12repositories15user_repositoryNtB5_18AuthRepositoryImplNtNtB7_6traits14AuthRepository15create_identity
FNDA:0,_RNvXs1_NtNtNtCscP9pq2ikS3v_12rust_backend14infrastructure12repositories15user_repositoryNtB5_18AuthRepositoryImplNtNtB7_6traits14AuthRepository15upsert_identity
FNDA:0,_RNvXs1_NtNtNtCscP9pq2ikS3v_12rust_backend14infrastructure12repositories15user_repositoryNtB5_18AuthRepositoryImplNtNtB7_6traits14AuthRepository24find_identity_by_user_id
FNDA:0,_RNvXs1_NtNtNtCscP9pq2ikS3v_12rust_backend14infrastructure12repositories15user_repositoryNtB5_18AuthRepositoryImplNtNtB7_6traits14AuthRepository28find_identity_by_provider_id
FNDA:0,_RNCNCNvXs0_NtNtNtCscP9pq2ikS3v_12rust_backend14infrastructure12repositories15user_repositoryNtB9_18UserRepositoryImplNtNtBb_6traits14UserRepository11update_role00Bf_
FNDA:0,_RNCNCNvXs0_NtNtNtCs4kTbYauoumE_12rust_backend14infrastructure12repositories15user_repositoryNtB9_18UserRepositoryImplNtNtBb_6traits14UserRepository11update_role00Bf_
FNDA:0,_RNvMNtNtNtCs4kTbYauoumE_12rust_backend14infrastructure12repositories15user_repositoryNtB2_18UserRepositoryImpl3new
FNDA:0,_RNvMs_NtNtNtCs4kTbYauoumE_12rust_backend14infrastructure12repositories15user_repositoryNtB4_18AuthRepositoryImpl3new
FNDA:0,_RNvXs0_NtNtNtCs4kTbYauoumE_12rust_backend14infrastructure12repositories15user_repositoryNtB5_18UserRepositoryImplNtNtB7_6traits14UserRepository10find_by_id
FNDA:0,_RNvXs0_NtNtNtCs4kTbYauoumE_12rust_backend14infrastructure12repositories15user_repositoryNtB5_18UserRepositoryImplNtNtB7_6traits14UserRepository11update_role
FNDA:0,_RNvXs0_NtNtNtCs4kTbYauoumE_12rust_backend14infrastructure12repositories15user_repositoryNtB5_18UserRepositoryImplNtNtB7_6traits14UserRepository13find_by_email
FNDA:0,_RNvXs0_NtNtNtCs4kTbYauoumE_12rust_backend14infrastructure12repositories15user_repositoryNtB5_18UserRepositoryImplNtNtB7_6traits14UserRepository16find_by_username
FNDA:0,_RNvXs0_NtNtNtCs4kTbYauoumE_12rust_backend14infrastructure12repositories15user_repositoryNtB5_18UserRepositoryImplNtNtB7_6traits14UserRepository6create
FNDA:0,_RNvXs0_NtNtNtCs4kTbYauoumE_12rust_backend14infrastructure12repositories15user_repositoryNtB5_18UserRepositoryImplNtNtB7_6traits14UserRepository6delete
FNDA:0,_RNvXs0_NtNtNtCs4kTbYauoumE_12rust_backend14infrastructure12repositories15user_repositoryNtB5_18UserRepositoryImplNtNtB7_6traits14UserRepository6update
FNDA:0,_RNvXs0_NtNtNtCs4kTbYauoumE_12rust_backend14infrastructure12repositories15user_repositoryNtB5_18UserRepositoryImplNtNtB7_6traits14UserRepository8list_all
FNDA:0,_RNvXs0_NtNtNtCs4kTbYauoumE_12rust_backend14infrastructure12repositories15user_repositoryNtB5_18UserRepositoryImplNtNtB7_6traits14UserRepository9count_all
FNDA:0,_RNvXs1_NtNtNtCs4kTbYauoumE_12rust_backend14infrastructure12repositories15user_repositoryNtB5_18AuthRepositoryImplNtNtB7_6traits14AuthRepository15create_identity
FNDA:0,_RNvXs1_NtNtNtCs4kTbYauoumE_12rust_backend14infrastructure12repositories15user_repositoryNtB5_18AuthRepositoryImplNtNtB7_6traits14AuthRepository15upsert_identity
FNDA:0,_RNvXs1_NtNtNtCs4kTbYauoumE_12rust_backend14infrastructure12repositories15user_repositoryNtB5_18AuthRepositoryImplNtNtB7_6traits14AuthRepository24find_identity_by_user_id
FNDA:0,_RNvXs1_NtNtNtCs4kTbYauoumE_12rust_backend14infrastructure12repositories15user_repositoryNtB5_18AuthRepositoryImplNtNtB7_6traits14AuthRepository28find_identity_by_provider_id
FNF:16
FNH:0
DA:14,0
DA:15,0
DA:16,0
DA:21,0
DA:29,0
DA:31,0
DA:39,0
DA:41,0
DA:49,0
DA:51,0
DA:70,0
DA:72,0
DA:90,0
DA:92,0
DA:98,0
DA:106,0
DA:125,0
DA:127,0
DA:142,0
DA:144,0
DA:157,0
DA:158,0
DA:166,0
DA:167,0
DA:168,0
DA:173,0
DA:191,0
DA:197,0
DA:206,0
DA:212,0
DA:221,0
DA:223,0
DA:243,0
BRF:0
BRH:0
LF:33
LH:0
end_of_record
SF:/Users/mykolborghese/rust-backend/src/infrastructure/repositories/utils.rs
FN:1,_RNvNtNtNtCscP9pq2ikS3v_12rust_backend14infrastructure12repositories5utils19escape_like_pattern
FN:1,_RNvNtNtNtCs4kTbYauoumE_12rust_backend14infrastructure12repositories5utils19escape_like_pattern
FNDA:0,_RNvNtNtNtCscP9pq2ikS3v_12rust_backend14infrastructure12repositories5utils19escape_like_pattern
FNDA:0,_RNvNtNtNtCs4kTbYauoumE_12rust_backend14infrastructure12repositories5utils19escape_like_pattern
FNF:1
FNH:0
DA:1,0
DA:2,0
DA:3,0
DA:4,0
DA:5,0
DA:6,0
BRF:0
BRH:0
LF:6
LH:0
end_of_record
SF:/Users/mykolborghese/rust-backend/src/main.rs
FN:221,_RNCNCNCNCNCNvCscr7CgJivPrp_12rust_backend4main00000Bb_
FN:215,_RNCNCNCNCNvCscr7CgJivPrp_12rust_backend4main0000B9_
FN:203,_RNCNCNCNvCscr7CgJivPrp_12rust_backend4main000B7_
FN:57,_RNCNCNvCscr7CgJivPrp_12rust_backend15handle_shutdown00B5_
FN:64,_RNCNCNvCscr7CgJivPrp_12rust_backend15handle_shutdown0s_0B5_
FN:199,_RNCNCNvCscr7CgJivPrp_12rust_backend4main00B5_
FN:351,_RNCNCNvCscr7CgJivPrp_12rust_backend4main0s_0B5_
FN:56,_RNCNvCscr7CgJivPrp_12rust_backend15handle_shutdown0B3_
FN:56,_RNvCscr7CgJivPrp_12rust_backend15handle_shutdown
FN:418,_RNvNtCscr7CgJivPrp_12rust_backend5testss_49build_jwks_provider_enabled_success_builds_client
FN:444,_RNvNtCscr7CgJivPrp_12rust_backend5testss_54build_jwks_provider_disabled_returns_disabled_provider
FN:431,_RNvNtCscr7CgJivPrp_12rust_backend5testss_61build_jwks_provider_enabled_failure_returns_disabled_provider
FN:85,_RNvCscr7CgJivPrp_12rust_backend19build_jwks_provider
FN:36,_RNvCscr7CgJivPrp_12rust_backend22build_auth0_api_client
FN:56,_RNvCsgtmjUppuLPf_12rust_backend15handle_shutdown
FN:85,_RNvCsgtmjUppuLPf_12rust_backend19build_jwks_provider
FN:36,_RNvCsgtmjUppuLPf_12rust_backend22build_auth0_api_client
FN:221,_RNCNCNCNCNCNvCsgtmjUppuLPf_12rust_backend4main00000Bb_
FN:215,_RNCNCNCNCNvCsgtmjUppuLPf_12rust_backend4main0000B9_
FN:203,_RNCNCNCNvCsgtmjUppuLPf_12rust_backend4main000B7_
FN:57,_RNCNCNvCsgtmjUppuLPf_12rust_backend15handle_shutdown00B5_
FN:64,_RNCNCNvCsgtmjUppuLPf_12rust_backend15handle_shutdown0s_0B5_
FN:199,_RNCNCNvCsgtmjUppuLPf_12rust_backend4main00B5_
FN:351,_RNCNCNvCsgtmjUppuLPf_12rust_backend4main0s_0B5_
FN:56,_RNCNvCsgtmjUppuLPf_12rust_backend15handle_shutdown0B3_
FNDA:0,_RNCNCNCNCNCNvCscr7CgJivPrp_12rust_backend4main00000Bb_
FNDA:0,_RNCNCNCNCNvCscr7CgJivPrp_12rust_backend4main0000B9_
FNDA:0,_RNCNCNCNvCscr7CgJivPrp_12rust_backend4main000B7_
FNDA:0,_RNCNCNvCscr7CgJivPrp_12rust_backend15handle_shutdown00B5_
FNDA:0,_RNCNCNvCscr7CgJivPrp_12rust_backend15handle_shutdown0s_0B5_
FNDA:0,_RNCNCNvCscr7CgJivPrp_12rust_backend4main00B5_
FNDA:0,_RNCNCNvCscr7CgJivPrp_12rust_backend4main0s_0B5_
FNDA:0,_RNCNvCscr7CgJivPrp_12rust_backend15handle_shutdown0B3_
FNDA:0,_RNvCscr7CgJivPrp_12rust_backend15handle_shutdown
FNDA:1,_RNvNtCscr7CgJivPrp_12rust_backend5testss_49build_jwks_provider_enabled_success_builds_client
FNDA:1,_RNvNtCscr7CgJivPrp_12rust_backend5testss_54build_jwks_provider_disabled_returns_disabled_provider
FNDA:1,_RNvNtCscr7CgJivPrp_12rust_backend5testss_61build_jwks_provider_enabled_failure_returns_disabled_provider
FNDA:3,_RNvCscr7CgJivPrp_12rust_backend19build_jwks_provider
FNDA:3,_RNvCscr7CgJivPrp_12rust_backend22build_auth0_api_client
FNDA:0,_RNvCsgtmjUppuLPf_12rust_backend15handle_shutdown
FNDA:0,_RNvCsgtmjUppuLPf_12rust_backend19build_jwks_provider
FNDA:0,_RNvCsgtmjUppuLPf_12rust_backend22build_auth0_api_client
FNDA:0,_RNCNCNCNCNCNvCsgtmjUppuLPf_12rust_backend4main00000Bb_
FNDA:0,_RNCNCNCNCNvCsgtmjUppuLPf_12rust_backend4main0000B9_
FNDA:0,_RNCNCNCNvCsgtmjUppuLPf_12rust_backend4main000B7_
FNDA:0,_RNCNCNvCsgtmjUppuLPf_12rust_backend15handle_shutdown00B5_
FNDA:0,_RNCNCNvCsgtmjUppuLPf_12rust_backend15handle_shutdown0s_0B5_
FNDA:0,_RNCNCNvCsgtmjUppuLPf_12rust_backend4main00B5_
FNDA:0,_RNCNCNvCsgtmjUppuLPf_12rust_backend4main0s_0B5_
FNDA:0,_RNCNvCsgtmjUppuLPf_12rust_backend15handle_shutdown0B3_
FNF:14
FNH:5
DA:36,3
DA:37,3
DA:38,3
DA:39,3
DA:40,2
DA:41,1
DA:42,1
DA:43,1
DA:47,1
DA:51,1
DA:52,1
DA:54,3
DA:56,0
DA:57,0
DA:58,0
DA:59,0
DA:60,0
DA:61,0
DA:64,0
DA:65,0
DA:66,0
DA:67,0
DA:68,0
DA:69,0
DA:72,0
DA:73,0
DA:74,0
DA:82,0
DA:83,0
DA:85,3
DA:86,3
DA:87,1
DA:88,1
DA:89,2
DA:91,2
DA:92,1
DA:93,1
DA:94,1
DA:98,1
DA:101,3
DA:199,0
DA:200,0
DA:201,0
DA:202,0
DA:203,0
DA:204,0
DA:205,0
DA:206,0
DA:207,0
DA:208,0
DA:209,0
DA:210,0
DA:211,0
DA:212,0
DA:214,0
DA:215,0
DA:216,0
DA:217,0
DA:218,0
DA:219,0
DA:220,0
DA:221,0
DA:222,0
DA:225,0
DA:228,0
DA:229,0
DA:230,0
DA:232,0
DA:235,0
DA:236,0
DA:237,0
DA:238,0
DA:240,0
DA:243,0
DA:244,0
DA:245,0
DA:259,0
DA:260,0
DA:275,0
DA:292,0
DA:293,0
DA:299,0
DA:301,0
DA:302,0
DA:303,0
DA:305,0
DA:313,0
DA:314,0
DA:315,0
DA:317,0
DA:318,0
DA:329,0
DA:332,0
DA:333,0
DA:334,0
DA:335,0
DA:336,0
DA:337,0
DA:338,0
DA:339,0
DA:340,0
DA:341,0
DA:342,0
DA:343,0
DA:344,0
DA:351,0
DA:352,0
DA:353,0
DA:354,0
DA:418,1
DA:419,1
DA:420,1
DA:421,1
DA:422,1
DA:423,1
DA:425,1
DA:427,1
DA:428,1
DA:431,1
DA:432,1
DA:433,1
DA:434,1
DA:435,1
DA:436,1
DA:439,1
DA:440,1
DA:441,1
DA:444,1
DA:445,1
DA:448,1
DA:449,1
DA:450,1
BRF:0
BRH:0
LF:137
LH:46
end_of_record
SF:/Users/mykolborghese/rust-backend/src/middleware/auth.rs
FN:30,_RNvMNtNtCscP9pq2ikS3v_12rust_backend10middleware4authNtB2_26JitUserProvisioningService3new
FN:48,_RNvXs0_NtNtCscP9pq2ikS3v_12rust_backend10middleware4authNtB5_26JitUserProvisioningServiceNtB5_23UserProvisioningService14provision_user
FN:136,_RNvXs_NtNtCscP9pq2ikS3v_12rust_backend10middleware4authNtB4_22Auth0AuthenticatedUserNtNtCs5Ib3FUrOmpC_9actix_web7extract11FromRequest12from_request
FN:60,_RNCNCNvXs0_NtNtCscP9pq2ikS3v_12rust_backend10middleware4authNtB9_26JitUserProvisioningServiceNtB9_23UserProvisioningService14provision_user00Bd_
FN:84,_RNCNCNvXs0_NtNtCscP9pq2ikS3v_12rust_backend10middleware4authNtB9_26JitUserProvisioningServiceNtB9_23UserProvisioningService14provision_user0s_0Bd_
FN:153,_RNCNCNvXs_NtNtCscP9pq2ikS3v_12rust_backend10middleware4authNtB8_22Auth0AuthenticatedUserNtNtCs5Ib3FUrOmpC_9actix_web7extract11FromRequest12from_request00Bc_
FN:161,_RNCNCNvXs_NtNtCscP9pq2ikS3v_12rust_backend10middleware4authNtB8_22Auth0AuthenticatedUserNtNtCs5Ib3FUrOmpC_9actix_web7extract11FromRequest12from_request0s0_0Bc_
FN:156,_RNCNCNvXs_NtNtCscP9pq2ikS3v_12rust_backend10middleware4authNtB8_22Auth0AuthenticatedUserNtNtCs5Ib3FUrOmpC_9actix_web7extract11FromRequest12from_request0s_0Bc_
FN:139,_RNCNvXs_NtNtCscP9pq2ikS3v_12rust_backend10middleware4authNtB6_22Auth0AuthenticatedUserNtNtCs5Ib3FUrOmpC_9actix_web7extract11FromRequest12from_request0Ba_
FN:30,_RNvMNtNtCs4kTbYauoumE_12rust_backend10middleware4authNtB2_26JitUserProvisioningService3new
FN:60,_RNCNCNvXs0_NtNtCs4kTbYauoumE_12rust_backend10middleware4authNtB9_26JitUserProvisioningServiceNtB9_23UserProvisioningService14provision_user00Bd_
FN:84,_RNCNCNvXs0_NtNtCs4kTbYauoumE_12rust_backend10middleware4authNtB9_26JitUserProvisioningServiceNtB9_23UserProvisioningService14provision_user0s_0Bd_
FN:153,_RNCNCNvXs_NtNtCs4kTbYauoumE_12rust_backend10middleware4authNtB8_22Auth0AuthenticatedUserNtNtCs5Ib3FUrOmpC_9actix_web7extract11FromRequest12from_request00Bc_
FN:161,_RNCNCNvXs_NtNtCs4kTbYauoumE_12rust_backend10middleware4authNtB8_22Auth0AuthenticatedUserNtNtCs5Ib3FUrOmpC_9actix_web7extract11FromRequest12from_request0s0_0Bc_
FN:156,_RNCNCNvXs_NtNtCs4kTbYauoumE_12rust_backend10middleware4authNtB8_22Auth0AuthenticatedUserNtNtCs5Ib3FUrOmpC_9actix_web7extract11FromRequest12from_request0s_0Bc_
FN:139,_RNCNvXs_NtNtCs4kTbYauoumE_12rust_backend10middleware4authNtB6_22Auth0AuthenticatedUserNtNtCs5Ib3FUrOmpC_9actix_web7extract11FromRequest12from_request0Ba_
FN:48,_RNvXs0_NtNtCs4kTbYauoumE_12rust_backend10middleware4authNtB5_26JitUserProvisioningServiceNtB5_23UserProvisioningService14provision_user
FN:136,_RNvXs_NtNtCs4kTbYauoumE_12rust_backend10middleware4authNtB4_22Auth0AuthenticatedUserNtNtCs5Ib3FUrOmpC_9actix_web7extract11FromRequest12from_request
FNDA:0,_RNvMNtNtCscP9pq2ikS3v_12rust_backend10middleware4authNtB2_26JitUserProvisioningService3new
FNDA:0,_RNvXs0_NtNtCscP9pq2ikS3v_12rust_backend10middleware4authNtB5_26JitUserProvisioningServiceNtB5_23UserProvisioningService14provision_user
FNDA:0,_RNvXs_NtNtCscP9pq2ikS3v_12rust_backend10middleware4authNtB4_22Auth0AuthenticatedUserNtNtCs5Ib3FUrOmpC_9actix_web7extract11FromRequest12from_request
FNDA:0,_RNCNCNvXs0_NtNtCscP9pq2ikS3v_12rust_backend10middleware4authNtB9_26JitUserProvisioningServiceNtB9_23UserProvisioningService14provision_user00Bd_
FNDA:0,_RNCNCNvXs0_NtNtCscP9pq2ikS3v_12rust_backend10middleware4authNtB9_26JitUserProvisioningServiceNtB9_23UserProvisioningService14provision_user0s_0Bd_
FNDA:0,_RNCNCNvXs_NtNtCscP9pq2ikS3v_12rust_backend10middleware4authNtB8_22Auth0AuthenticatedUserNtNtCs5Ib3FUrOmpC_9actix_web7extract11FromRequest12from_request00Bc_
FNDA:0,_RNCNCNvXs_NtNtCscP9pq2ikS3v_12rust_backend10middleware4authNtB8_22Auth0AuthenticatedUserNtNtCs5Ib3FUrOmpC_9actix_web7extract11FromRequest12from_request0s0_0Bc_
FNDA:0,_RNCNCNvXs_NtNtCscP9pq2ikS3v_12rust_backend10middleware4authNtB8_22Auth0AuthenticatedUserNtNtCs5Ib3FUrOmpC_9actix_web7extract11FromRequest12from_request0s_0Bc_
FNDA:0,_RNCNvXs_NtNtCscP9pq2ikS3v_12rust_backend10middleware4authNtB6_22Auth0AuthenticatedUserNtNtCs5Ib3FUrOmpC_9actix_web7extract11FromRequest12from_request0Ba_
FNDA:2,_RNvMNtNtCs4kTbYauoumE_12rust_backend10middleware4authNtB2_26JitUserProvisioningService3new
FNDA:0,_RNCNCNvXs0_NtNtCs4kTbYauoumE_12rust_backend10middleware4authNtB9_26JitUserProvisioningServiceNtB9_23UserProvisioningService14provision_user00Bd_
FNDA:0,_RNCNCNvXs0_NtNtCs4kTbYauoumE_12rust_backend10middleware4authNtB9_26JitUserProvisioningServiceNtB9_23UserProvisioningService14provision_user0s_0Bd_
FNDA:0,_RNCNCNvXs_NtNtCs4kTbYauoumE_12rust_backend10middleware4authNtB8_22Auth0AuthenticatedUserNtNtCs5Ib3FUrOmpC_9actix_web7extract11FromRequest12from_request00Bc_
FNDA:0,_RNCNCNvXs_NtNtCs4kTbYauoumE_12rust_backend10middleware4authNtB8_22Auth0AuthenticatedUserNtNtCs5Ib3FUrOmpC_9actix_web7extract11FromRequest12from_request0s0_0Bc_
FNDA:0,_RNCNCNvXs_NtNtCs4kTbYauoumE_12rust_backend10middleware4authNtB8_22Auth0AuthenticatedUserNtNtCs5Ib3FUrOmpC_9actix_web7extract11FromRequest12from_request0s_0Bc_
FNDA:0,_RNCNvXs_NtNtCs4kTbYauoumE_12rust_backend10middleware4authNtB6_22Auth0AuthenticatedUserNtNtCs5Ib3FUrOmpC_9actix_web7extract11FromRequest12from_request0Ba_
FNDA:0,_RNvXs0_NtNtCs4kTbYauoumE_12rust_backend10middleware4authNtB5_26JitUserProvisioningServiceNtB5_23UserProvisioningService14provision_user
FNDA:0,_RNvXs_NtNtCs4kTbYauoumE_12rust_backend10middleware4authNtB4_22Auth0AuthenticatedUserNtNtCs5Ib3FUrOmpC_9actix_web7extract11FromRequest12from_request
FNF:9
FNH:1
DA:30,2
DA:31,2
DA:32,2
DA:33,2
DA:34,2
DA:35,2
DA:36,2
DA:37,2
DA:38,2
DA:39,2
DA:40,2
DA:48,0
DA:60,0
DA:61,0
DA:62,0
DA:63,0
DA:64,0
DA:84,0
DA:127,0
DA:136,0
DA:137,0
DA:139,0
DA:140,0
DA:141,0
DA:142,0
DA:143,0
DA:144,0
DA:146,0
DA:148,0
DA:151,0
DA:152,0
DA:153,0
DA:154,0
DA:155,0
DA:156,0
DA:157,0
DA:158,0
DA:159,0
DA:160,0
DA:161,0
DA:162,0
DA:163,0
DA:164,0
DA:165,0
DA:167,0
DA:168,0
DA:169,0
DA:170,0
DA:171,0
DA:172,0
DA:173,0
BRF:0
BRH:0
LF:58
LH:11
end_of_record
SF:/Users/mykolborghese/rust-backend/src/middleware/request_logging.rs
FN:27,_RNvNtNtCscP9pq2ikS3v_12rust_backend10middleware15request_logging13get_client_ip
FN:35,_RNvNtNtCscP9pq2ikS3v_12rust_backend10middleware15request_logging14get_user_agent
FN:64,_RNvNtNtCscP9pq2ikS3v_12rust_backend10middleware15request_logging16get_status_class
FN:44,_RNvNtNtCscP9pq2ikS3v_12rust_backend10middleware15request_logging19create_request_span
FN:11,_RNvNtNtCscP9pq2ikS3v_12rust_backend10middleware15request_logging24get_user_id_from_request
FN:30,_RNCNvNtNtCscP9pq2ikS3v_12rust_backend10middleware15request_logging13get_client_ip0B7_
FN:31,_RNCNvNtNtCscP9pq2ikS3v_12rust_backend10middleware15request_logging13get_client_ips_0B7_
FN:38,_RNCNvNtNtCscP9pq2ikS3v_12rust_backend10middleware15request_logging14get_user_agent0B7_
FN:14,_RNCNvNtNtCscP9pq2ikS3v_12rust_backend10middleware15request_logging24get_user_id_from_request0B7_
FN:15,_RNCNvNtNtCscP9pq2ikS3v_12rust_backend10middleware15request_logging24get_user_id_from_requests_0B7_
FN:27,_RNvNtNtCs4kTbYauoumE_12rust_backend10middleware15request_logging13get_client_ip
FN:35,_RNvNtNtCs4kTbYauoumE_12rust_backend10middleware15request_logging14get_user_agent
FN:64,_RNvNtNtCs4kTbYauoumE_12rust_backend10middleware15request_logging16get_status_class
FN:11,_RNvNtNtCs4kTbYauoumE_12rust_backend10middleware15request_logging24get_user_id_from_request
FN:30,_RNCNvNtNtCs4kTbYauoumE_12rust_backend10middleware15request_logging13get_client_ip0B7_
FN:31,_RNCNvNtNtCs4kTbYauoumE_12rust_backend10middleware15request_logging13get_client_ips_0B7_
FN:38,_RNCNvNtNtCs4kTbYauoumE_12rust_backend10middleware15request_logging14get_user_agent0B7_
FN:14,_RNCNvNtNtCs4kTbYauoumE_12rust_backend10middleware15request_logging24get_user_id_from_request0B7_
FN:15,_RNCNvNtNtCs4kTbYauoumE_12rust_backend10middleware15request_logging24get_user_id_from_requests_0B7_
FN:44,_RNvNtNtCs4kTbYauoumE_12rust_backend10middleware15request_logging19create_request_span
FN:103,_RNvNtNtNtCs4kTbYauoumE_12rust_backend10middleware15request_logging5testss_18test_get_client_ip
FN:97,_RNvNtNtNtCs4kTbYauoumE_12rust_backend10middleware15request_logging5testss_19test_get_user_agent
FN:79,_RNvNtNtNtCs4kTbYauoumE_12rust_backend10middleware15request_logging5testss_21test_get_status_class
FN:91,_RNvNtNtNtCs4kTbYauoumE_12rust_backend10middleware15request_logging5testss_29test_get_user_id_from_request
FNDA:0,_RNvNtNtCscP9pq2ikS3v_12rust_backend10middleware15request_logging13get_client_ip
FNDA:0,_RNvNtNtCscP9pq2ikS3v_12rust_backend10middleware15request_logging14get_user_agent
FNDA:0,_RNvNtNtCscP9pq2ikS3v_12rust_backend10middleware15request_logging16get_status_class
FNDA:0,_RNvNtNtCscP9pq2ikS3v_12rust_backend10middleware15request_logging19create_request_span
FNDA:0,_RNvNtNtCscP9pq2ikS3v_12rust_backend10middleware15request_logging24get_user_id_from_request
FNDA:0,_RNCNvNtNtCscP9pq2ikS3v_12rust_backend10middleware15request_logging13get_client_ip0B7_
FNDA:0,_RNCNvNtNtCscP9pq2ikS3v_12rust_backend10middleware15request_logging13get_client_ips_0B7_
FNDA:0,_RNCNvNtNtCscP9pq2ikS3v_12rust_backend10middleware15request_logging14get_user_agent0B7_
FNDA:0,_RNCNvNtNtCscP9pq2ikS3v_12rust_backend10middleware15request_logging24get_user_id_from_request0B7_
FNDA:0,_RNCNvNtNtCscP9pq2ikS3v_12rust_backend10middleware15request_logging24get_user_id_from_requests_0B7_
FNDA:1,_RNvNtNtCs4kTbYauoumE_12rust_backend10middleware15request_logging13get_client_ip
FNDA:1,_RNvNtNtCs4kTbYauoumE_12rust_backend10middleware15request_logging14get_user_agent
FNDA:8,_RNvNtNtCs4kTbYauoumE_12rust_backend10middleware15request_logging16get_status_class
FNDA:1,_RNvNtNtCs4kTbYauoumE_12rust_backend10middleware15request_logging24get_user_id_from_request
FNDA:0,_RNCNvNtNtCs4kTbYauoumE_12rust_backend10middleware15request_logging13get_client_ip0B7_
FNDA:1,_RNCNvNtNtCs4kTbYauoumE_12rust_backend10middleware15request_logging13get_client_ips_0B7_
FNDA:0,_RNCNvNtNtCs4kTbYauoumE_12rust_backend10middleware15request_logging14get_user_agent0B7_
FNDA:0,_RNCNvNtNtCs4kTbYauoumE_12rust_backend10middleware15request_logging24get_user_id_from_request0B7_
FNDA:1,_RNCNvNtNtCs4kTbYauoumE_12rust_backend10middleware15request_logging24get_user_id_from_requests_0B7_
FNDA:0,_RNvNtNtCs4kTbYauoumE_12rust_backend10middleware15request_logging19create_request_span
FNDA:1,_RNvNtNtNtCs4kTbYauoumE_12rust_backend10middleware15request_logging5testss_18test_get_client_ip
FNDA:1,_RNvNtNtNtCs4kTbYauoumE_12rust_backend10middleware15request_logging5testss_19test_get_user_agent
FNDA:1,_RNvNtNtNtCs4kTbYauoumE_12rust_backend10middleware15request_logging5testss_21test_get_status_class
FNDA:1,_RNvNtNtNtCs4kTbYauoumE_12rust_backend10middleware15request_logging5testss_29test_get_user_id_from_request
FNF:14
FNH:10
DA:11,1
DA:12,1
DA:13,1
DA:14,1
DA:15,1
DA:16,1
DA:27,1
DA:28,1
DA:29,1
DA:30,1
DA:31,1
DA:32,1
DA:35,1
DA:36,1
DA:37,1
DA:38,1
DA:39,1
DA:40,1
DA:41,1
DA:44,0
DA:45,0
DA:46,0
DA:47,0
DA:48,0
DA:49,0
DA:50,0
DA:51,0
DA:52,0
DA:61,0
DA:64,8
DA:65,8
DA:66,8
DA:67,6
DA:68,5
DA:69,3
DA:70,1
DA:72,8
DA:79,1
DA:80,1
DA:81,1
DA:82,1
DA:83,1
DA:84,1
DA:85,1
DA:86,1
DA:87,1
DA:88,1
DA:91,1
DA:92,1
DA:93,1
DA:94,1
DA:97,1
DA:98,1
DA:99,1
DA:100,1
DA:103,1
DA:104,1
DA:105,1
DA:106,1
BRF:0
BRH:0
LF:64
LH:51
end_of_record
SF:/Users/mykolborghese/rust-backend/src/observability/error_tracking.rs
FN:5,_RNvNtNtCscP9pq2ikS3v_12rust_backend13observability14error_tracking22capture_unexpected_5xx
FN:5,_RNvNtNtCs4kTbYauoumE_12rust_backend13observability14error_tracking22capture_unexpected_5xx
FN:37,_RNCNvNtNtNtCs4kTbYauoumE_12rust_backend13observability14error_tracking5testss_37capture_unexpected_5xx_does_not_panic0B9_
FN:36,_RNvNtNtNtCs4kTbYauoumE_12rust_backend13observability14error_tracking5testss_37capture_unexpected_5xx_does_not_panic
FN:47,_RNvNtNtNtCs4kTbYauoumE_12rust_backend13observability14error_tracking5testss_45capture_unexpected_5xx_rejects_non_5xx_status
FNDA:0,_RNvNtNtCscP9pq2ikS3v_12rust_backend13observability14error_tracking22capture_unexpected_5xx
FNDA:2,_RNvNtNtCs4kTbYauoumE_12rust_backend13observability14error_tracking22capture_unexpected_5xx
FNDA:1,_RNCNvNtNtNtCs4kTbYauoumE_12rust_backend13observability14error_tracking5testss_37capture_unexpected_5xx_does_not_panic0B9_
FNDA:1,_RNvNtNtNtCs4kTbYauoumE_12rust_backend13observability14error_tracking5testss_37capture_unexpected_5xx_does_not_panic
FNDA:1,_RNvNtNtNtCs4kTbYauoumE_12rust_backend13observability14error_tracking5testss_45capture_unexpected_5xx_rejects_non_5xx_status
FNF:4
FNH:4
DA:5,2
DA:6,2
DA:7,2
DA:8,2
DA:9,2
DA:10,2
DA:11,2
DA:12,1
DA:13,1
DA:14,1
DA:15,1
DA:17,1
DA:18,1
DA:27,1
DA:28,2
DA:36,1
DA:37,1
DA:38,1
DA:39,1
DA:40,1
DA:41,1
DA:43,1
DA:44,1
DA:47,1
DA:48,1
DA:49,1
DA:50,1
DA:51,1
BRF:0
BRH:0
LF:29
LH:29
end_of_record
SF:/Users/mykolborghese/rust-backend/src/observability/mod.rs
FN:32,_RNvMNtCscP9pq2ikS3v_12rust_backend13observabilityNtB2_10AppMetrics12ws_connected
FN:16,_RNvMNtCscP9pq2ikS3v_12rust_backend13observabilityNtB2_10AppMetrics14record_request
FN:36,_RNvMNtCscP9pq2ikS3v_12rust_backend13observabilityNtB2_10AppMetrics15ws_disconnected
FN:40,_RNvMNtCscP9pq2ikS3v_12rust_backend13observabilityNtB2_10AppMetrics17render_prometheus
FN:28,_RNvMNtCscP9pq2ikS3v_12rust_backend13observabilityNtB2_10AppMetrics19record_auth_failure
FN:32,_RNvMNtCs4kTbYauoumE_12rust_backend13observabilityNtB2_10AppMetrics12ws_connected
FN:16,_RNvMNtCs4kTbYauoumE_12rust_backend13observabilityNtB2_10AppMetrics14record_request
FN:36,_RNvMNtCs4kTbYauoumE_12rust_backend13observabilityNtB2_10AppMetrics15ws_disconnected
FN:40,_RNvMNtCs4kTbYauoumE_12rust_backend13observabilityNtB2_10AppMetrics17render_prometheus
FN:28,_RNvMNtCs4kTbYauoumE_12rust_backend13observabilityNtB2_10AppMetrics19record_auth_failure
FN:103,_RNvNtNtCs4kTbYauoumE_12rust_backend13observability5testss_38record_auth_failure_increments_counter
FN:83,_RNvNtNtCs4kTbYauoumE_12rust_backend13observability5testss_39record_request_increments_request_count
FN:93,_RNvNtNtCs4kTbYauoumE_12rust_backend13observability5testss_41record_request_5xx_increments_error_count
FN:113,_RNvNtNtCs4kTbYauoumE_12rust_backend13observability5testss_42ws_connected_and_disconnected_update_gauge
FN:125,_RNvNtNtCs4kTbYauoumE_12rust_backend13observability5testss_59render_prometheus_includes_all_metrics_with_expected_values
FNDA:0,_RNvMNtCscP9pq2ikS3v_12rust_backend13observabilityNtB2_10AppMetrics12ws_connected
FNDA:0,_RNvMNtCscP9pq2ikS3v_12rust_backend13observabilityNtB2_10AppMetrics14record_request
FNDA:0,_RNvMNtCscP9pq2ikS3v_12rust_backend13observabilityNtB2_10AppMetrics15ws_disconnected
FNDA:0,_RNvMNtCscP9pq2ikS3v_12rust_backend13observabilityNtB2_10AppMetrics17render_prometheus
FNDA:0,_RNvMNtCscP9pq2ikS3v_12rust_backend13observabilityNtB2_10AppMetrics19record_auth_failure
FNDA:4,_RNvMNtCs4kTbYauoumE_12rust_backend13observabilityNtB2_10AppMetrics12ws_connected
FNDA:4,_RNvMNtCs4kTbYauoumE_12rust_backend13observabilityNtB2_10AppMetrics14record_request
FNDA:1,_RNvMNtCs4kTbYauoumE_12rust_backend13observabilityNtB2_10AppMetrics15ws_disconnected
FNDA:5,_RNvMNtCs4kTbYauoumE_12rust_backend13observabilityNtB2_10AppMetrics17render_prometheus
FNDA:3,_RNvMNtCs4kTbYauoumE_12rust_backend13observabilityNtB2_10AppMetrics19record_auth_failure
FNDA:1,_RNvNtNtCs4kTbYauoumE_12rust_backend13observability5testss_38record_auth_failure_increments_counter
FNDA:1,_RNvNtNtCs4kTbYauoumE_12rust_backend13observability5testss_39record_request_increments_request_count
FNDA:1,_RNvNtNtCs4kTbYauoumE_12rust_backend13observability5testss_41record_request_5xx_increments_error_count
FNDA:1,_RNvNtNtCs4kTbYauoumE_12rust_backend13observability5testss_42ws_connected_and_disconnected_update_gauge
FNDA:1,_RNvNtNtCs4kTbYauoumE_12rust_backend13observability5testss_59render_prometheus_includes_all_metrics_with_expected_values
FNF:10
FNH:10
DA:16,4
DA:17,4
DA:18,4
DA:19,2
DA:20,2
DA:21,4
DA:22,4
DA:25,4
DA:26,4
DA:28,3
DA:29,3
DA:30,3
DA:32,4
DA:33,4
DA:34,4
DA:36,1
DA:37,1
DA:38,1
DA:40,5
DA:41,5
DA:42,5
DA:43,5
DA:44,5
DA:45,2
DA:47,3
DA:50,5
DA:68,5
DA:69,5
DA:70,5
DA:75,5
DA:83,1
DA:84,1
DA:86,1
DA:88,1
DA:89,1
DA:90,1
DA:93,1
DA:94,1
DA:96,1
DA:98,1
DA:99,1
DA:100,1
DA:103,1
DA:104,1
DA:106,1
DA:108,1
DA:109,1
DA:110,1
DA:113,1
DA:114,1
DA:116,1
DA:117,1
DA:118,1
DA:120,1
DA:121,1
DA:122,1
DA:125,1
DA:126,1
DA:128,1
DA:129,1
DA:130,1
DA:131,1
DA:132,1
DA:134,1
DA:136,1
DA:137,1
DA:138,1
DA:139,1
DA:140,1
DA:141,1
DA:142,1
DA:143,1
DA:144,1
DA:145,1
DA:146,1
DA:147,1
DA:148,1
DA:149,1
DA:150,1
BRF:0
BRH:0
LF:79
LH:79
end_of_record
SF:/Users/mykolborghese/rust-backend/src/security/cors.rs
FN:4,_RNvNtNtCscP9pq2ikS3v_12rust_backend8security4cors15cors_middleware
FN:15,_RNCNCNCNvNtNtCscP9pq2ikS3v_12rust_backend8security4cors15cors_middleware000Bb_
FN:15,_RNCNCNvNtNtCscP9pq2ikS3v_12rust_backend8security4cors15cors_middleware00B9_
FN:11,_RNCNvNtNtCscP9pq2ikS3v_12rust_backend8security4cors15cors_middleware0B7_
FN:15,_RNCNCNCNvNtNtCs4kTbYauoumE_12rust_backend8security4cors15cors_middleware000Bb_
FN:15,_RNCNCNvNtNtCs4kTbYauoumE_12rust_backend8security4cors15cors_middleware00B9_
FN:11,_RNCNvNtNtCs4kTbYauoumE_12rust_backend8security4cors15cors_middleware0B7_
FN:4,_RNvNtNtCs4kTbYauoumE_12rust_backend8security4cors15cors_middleware
FNDA:0,_RNvNtNtCscP9pq2ikS3v_12rust_backend8security4cors15cors_middleware
FNDA:0,_RNCNCNCNvNtNtCscP9pq2ikS3v_12rust_backend8security4cors15cors_middleware000Bb_
FNDA:0,_RNCNCNvNtNtCscP9pq2ikS3v_12rust_backend8security4cors15cors_middleware00B9_
FNDA:0,_RNCNvNtNtCscP9pq2ikS3v_12rust_backend8security4cors15cors_middleware0B7_
FNDA:0,_RNCNCNCNvNtNtCs4kTbYauoumE_12rust_backend8security4cors15cors_middleware000Bb_
FNDA:0,_RNCNCNvNtNtCs4kTbYauoumE_12rust_backend8security4cors15cors_middleware00B9_
FNDA:0,_RNCNvNtNtCs4kTbYauoumE_12rust_backend8security4cors15cors_middleware0B7_
FNDA:0,_RNvNtNtCs4kTbYauoumE_12rust_backend8security4cors15cors_middleware
FNF:4
FNH:0
DA:4,0
DA:5,0
DA:7,0
DA:8,0
DA:9,0
DA:10,0
DA:11,0
DA:12,0
DA:13,0
DA:14,0
DA:15,0
DA:16,0
DA:17,0
DA:18,0
BRF:0
BRH:0
LF:17
LH:0
end_of_record
SF:/Users/mykolborghese/rust-backend/src/security/headers.rs
FN:3,_RNvNtNtCscP9pq2ikS3v_12rust_backend8security7headers16security_headers
FN:3,_RNvNtNtCs4kTbYauoumE_12rust_backend8security7headers16security_headers
FNDA:0,_RNvNtNtCscP9pq2ikS3v_12rust_backend8security7headers16security_headers
FNDA:0,_RNvNtNtCs4kTbYauoumE_12rust_backend8security7headers16security_headers
FNF:1
FNH:0
DA:3,0
DA:4,0
DA:5,0
DA:6,0
DA:7,0
DA:8,0
DA:9,0
DA:10,0
DA:11,0
DA:12,0
DA:13,0
DA:14,0
DA:15,0
DA:16,0
BRF:0
BRH:0
LF:14
LH:0
end_of_record
SF:/Users/mykolborghese/rust-backend/src/security/login_throttle.rs
FN:29,_RNvMNtNtCscP9pq2ikS3v_12rust_backend8security14login_throttleNtB2_13LoginThrottle13write_entries
FN:84,_RNvMNtNtCscP9pq2ikS3v_12rust_backend8security14login_throttleNtB2_13LoginThrottle14ensure_allowed
FN:105,_RNvMNtNtCscP9pq2ikS3v_12rust_backend8security14login_throttleNtB2_13LoginThrottle14record_failure
FN:100,_RNvMNtNtCscP9pq2ikS3v_12rust_backend8security14login_throttleNtB2_13LoginThrottle14record_success
FN:52,_RNvMNtNtCscP9pq2ikS3v_12rust_backend8security14login_throttleNtB2_13LoginThrottle20enforce_fixed_window
FN:38,_RNvMNtNtCscP9pq2ikS3v_12rust_backend8security14login_throttleNtB2_13LoginThrottle23cleanup_expired_entries
FN:24,_RNvMNtNtCscP9pq2ikS3v_12rust_backend8security14login_throttleNtB2_13LoginThrottle3key
FN:15,_RNvMNtNtCscP9pq2ikS3v_12rust_backend8security14login_throttleNtB2_13LoginThrottle3new
FN:48,_RNCNCNvMNtNtCscP9pq2ikS3v_12rust_backend8security14login_throttleNtB6_13LoginThrottle23cleanup_expired_entries00Ba_
FN:32,_RNCNvMNtNtCscP9pq2ikS3v_12rust_backend8security14login_throttleNtB4_13LoginThrottle13write_entries0B8_
FN:89,_RNCNvMNtNtCscP9pq2ikS3v_12rust_backend8security14login_throttleNtB4_13LoginThrottle14ensure_allowed0B8_
FN:92,_RNCNvMNtNtCscP9pq2ikS3v_12rust_backend8security14login_throttleNtB4_13LoginThrottle14ensure_alloweds_0B8_
FN:42,_RNCNvMNtNtCscP9pq2ikS3v_12rust_backend8security14login_throttleNtB4_13LoginThrottle23cleanup_expired_entries0B8_
FN:29,_RNvMNtNtCs4kTbYauoumE_12rust_backend8security14login_throttleNtB2_13LoginThrottle13write_entries
FN:84,_RNvMNtNtCs4kTbYauoumE_12rust_backend8security14login_throttleNtB2_13LoginThrottle14ensure_allowed
FN:105,_RNvMNtNtCs4kTbYauoumE_12rust_backend8security14login_throttleNtB2_13LoginThrottle14record_failure
FN:100,_RNvMNtNtCs4kTbYauoumE_12rust_backend8security14login_throttleNtB2_13LoginThrottle14record_success
FN:52,_RNvMNtNtCs4kTbYauoumE_12rust_backend8security14login_throttleNtB2_13LoginThrottle20enforce_fixed_window
FN:38,_RNvMNtNtCs4kTbYauoumE_12rust_backend8security14login_throttleNtB2_13LoginThrottle23cleanup_expired_entries
FN:24,_RNvMNtNtCs4kTbYauoumE_12rust_backend8security14login_throttleNtB2_13LoginThrottle3key
FN:15,_RNvMNtNtCs4kTbYauoumE_12rust_backend8security14login_throttleNtB2_13LoginThrottle3new
FN:48,_RNCNCNvMNtNtCs4kTbYauoumE_12rust_backend8security14login_throttleNtB6_13LoginThrottle23cleanup_expired_entries00Ba_
FN:32,_RNCNvMNtNtCs4kTbYauoumE_12rust_backend8security14login_throttleNtB4_13LoginThrottle13write_entries0B8_
FN:89,_RNCNvMNtNtCs4kTbYauoumE_12rust_backend8security14login_throttleNtB4_13LoginThrottle14ensure_allowed0B8_
FN:92,_RNCNvMNtNtCs4kTbYauoumE_12rust_backend8security14login_throttleNtB4_13LoginThrottle14ensure_alloweds_0B8_
FN:42,_RNCNvMNtNtCs4kTbYauoumE_12rust_backend8security14login_throttleNtB4_13LoginThrottle23cleanup_expired_entries0B8_
FNDA:0,_RNvMNtNtCscP9pq2ikS3v_12rust_backend8security14login_throttleNtB2_13LoginThrottle13write_entries
FNDA:0,_RNvMNtNtCscP9pq2ikS3v_12rust_backend8security14login_throttleNtB2_13LoginThrottle14ensure_allowed
FNDA:0,_RNvMNtNtCscP9pq2ikS3v_12rust_backend8security14login_throttleNtB2_13LoginThrottle14record_failure
FNDA:0,_RNvMNtNtCscP9pq2ikS3v_12rust_backend8security14login_throttleNtB2_13LoginThrottle14record_success
FNDA:0,_RNvMNtNtCscP9pq2ikS3v_12rust_backend8security14login_throttleNtB2_13LoginThrottle20enforce_fixed_window
FNDA:0,_RNvMNtNtCscP9pq2ikS3v_12rust_backend8security14login_throttleNtB2_13LoginThrottle23cleanup_expired_entries
FNDA:0,_RNvMNtNtCscP9pq2ikS3v_12rust_backend8security14login_throttleNtB2_13LoginThrottle3key
FNDA:27,_RNvMNtNtCscP9pq2ikS3v_12rust_backend8security14login_throttleNtB2_13LoginThrottle3new
FNDA:0,_RNCNCNvMNtNtCscP9pq2ikS3v_12rust_backend8security14login_throttleNtB6_13LoginThrottle23cleanup_expired_entries00Ba_
FNDA:0,_RNCNvMNtNtCscP9pq2ikS3v_12rust_backend8security14login_throttleNtB4_13LoginThrottle13write_entries0B8_
FNDA:0,_RNCNvMNtNtCscP9pq2ikS3v_12rust_backend8security14login_throttleNtB4_13LoginThrottle14ensure_allowed0B8_
FNDA:0,_RNCNvMNtNtCscP9pq2ikS3v_12rust_backend8security14login_throttleNtB4_13LoginThrottle14ensure_alloweds_0B8_
FNDA:0,_RNCNvMNtNtCscP9pq2ikS3v_12rust_backend8security14login_throttleNtB4_13LoginThrottle23cleanup_expired_entries0B8_
FNDA:11,_RNvMNtNtCs4kTbYauoumE_12rust_backend8security14login_throttleNtB2_13LoginThrottle13write_entries
FNDA:1,_RNvMNtNtCs4kTbYauoumE_12rust_backend8security14login_throttleNtB2_13LoginThrottle14ensure_allowed
FNDA:5,_RNvMNtNtCs4kTbYauoumE_12rust_backend8security14login_throttleNtB2_13LoginThrottle14record_failure
FNDA:1,_RNvMNtNtCs4kTbYauoumE_12rust_backend8security14login_throttleNtB2_13LoginThrottle14record_success
FNDA:3,_RNvMNtNtCs4kTbYauoumE_12rust_backend8security14login_throttleNtB2_13LoginThrottle20enforce_fixed_window
FNDA:9,_RNvMNtNtCs4kTbYauoumE_12rust_backend8security14login_throttleNtB2_13LoginThrottle23cleanup_expired_entries
FNDA:4,_RNvMNtNtCs4kTbYauoumE_12rust_backend8security14login_throttleNtB2_13LoginThrottle3key
FNDA:7,_RNvMNtNtCs4kTbYauoumE_12rust_backend8security14login_throttleNtB2_13LoginThrottle3new
FNDA:5,_RNCNCNvMNtNtCs4kTbYauoumE_12rust_backend8security14login_throttleNtB6_13LoginThrottle23cleanup_expired_entries00Ba_
FNDA:0,_RNCNvMNtNtCs4kTbYauoumE_12rust_backend8security14login_throttleNtB4_13LoginThrottle13write_entries0B8_
FNDA:0,_RNCNvMNtNtCs4kTbYauoumE_12rust_backend8security14login_throttleNtB4_13LoginThrottle14ensure_allowed0B8_
FNDA:0,_RNCNvMNtNtCs4kTbYauoumE_12rust_backend8security14login_throttleNtB4_13LoginThrottle14ensure_alloweds_0B8_
FNDA:5,_RNCNvMNtNtCs4kTbYauoumE_12rust_backend8security14login_throttleNtB4_13LoginThrottle23cleanup_expired_entries0B8_
FNF:13
FNH:10
DA:15,34
DA:16,34
DA:17,34
DA:18,34
DA:19,34
DA:20,34
DA:21,34
DA:22,34
DA:24,4
DA:25,4
DA:26,4
DA:27,4
DA:29,11
DA:30,11
DA:31,11
DA:32,11
DA:33,0
DA:34,0
DA:35,0
DA:36,11
DA:38,9
DA:39,9
DA:40,9
DA:41,9
DA:42,9
DA:43,5
DA:44,5
DA:45,5
DA:46,5
DA:47,5
DA:48,5
DA:49,5
DA:50,9
DA:52,3
DA:53,3
DA:54,3
DA:55,3
DA:56,3
DA:57,3
DA:58,3
DA:59,3
DA:60,3
DA:61,3
DA:63,3
DA:64,2
DA:65,0
DA:66,0
DA:67,2
DA:68,1
DA:70,3
DA:71,1
DA:72,2
DA:74,3
DA:75,1
DA:76,2
DA:78,2
DA:79,2
DA:81,2
DA:82,3
DA:84,1
DA:85,1
DA:86,1
DA:87,1
DA:88,1
DA:89,0
DA:90,0
DA:91,0
DA:92,0
DA:93,0
DA:94,0
DA:95,1
DA:97,1
DA:98,1
DA:100,1
DA:101,1
DA:102,1
DA:103,1
DA:105,5
DA:106,5
DA:107,5
DA:108,5
DA:109,5
DA:110,5
DA:112,5
DA:113,5
DA:114,5
DA:116,5
DA:117,1
DA:118,1
DA:119,1
DA:120,1
DA:121,4
DA:123,4
DA:124,4
DA:125,5
BRF:0
BRH:0
LF:100
LH:86
end_of_record
SF:/Users/mykolborghese/rust-backend/src/security/mod.rs
FN:18,_RNvNtNtCs4kTbYauoumE_12rust_backend8security5tests20test_security_config
FN:56,_RNvNtNtCs4kTbYauoumE_12rust_backend8security5testss_35login_throttle_success_clears_state
FN:33,_RNvNtNtCs4kTbYauoumE_12rust_backend8security5testss_38login_throttle_expires_state_after_ttl
FN:69,_RNvNtNtCs4kTbYauoumE_12rust_backend8security5testss_42fixed_window_rate_limit_blocks_after_limit
FN:121,_RNvNtNtCs4kTbYauoumE_12rust_backend8security5testss_53global_rate_limiting_succeeds_at_max_valid_rate_limit
FN:103,_RNvNtNtCs4kTbYauoumE_12rust_backend8security5testss_60global_rate_limiting_handles_excessive_rate_limit_gracefully
FN:82,_RNvNtNtCs4kTbYauoumE_12rust_backend8security5testss_60record_failure_does_not_panic_when_failures_counter_is_maxed
FN:134,_RNCNvNtNtCs4kTbYauoumE_12rust_backend8security5testss_53global_rate_limiting_succeeds_at_max_valid_rate_limit0B7_
FN:98,_RNCNvNtNtCs4kTbYauoumE_12rust_backend8security5testss_60record_failure_does_not_panic_when_failures_counter_is_maxed0B7_
FNDA:4,_RNvNtNtCs4kTbYauoumE_12rust_backend8security5tests20test_security_config
FNDA:1,_RNvNtNtCs4kTbYauoumE_12rust_backend8security5testss_35login_throttle_success_clears_state
FNDA:1,_RNvNtNtCs4kTbYauoumE_12rust_backend8security5testss_38login_throttle_expires_state_after_ttl
FNDA:1,_RNvNtNtCs4kTbYauoumE_12rust_backend8security5testss_42fixed_window_rate_limit_blocks_after_limit
FNDA:1,_RNvNtNtCs4kTbYauoumE_12rust_backend8security5testss_53global_rate_limiting_succeeds_at_max_valid_rate_limit
FNDA:1,_RNvNtNtCs4kTbYauoumE_12rust_backend8security5testss_60global_rate_limiting_handles_excessive_rate_limit_gracefully
FNDA:1,_RNvNtNtCs4kTbYauoumE_12rust_backend8security5testss_60record_failure_does_not_panic_when_failures_counter_is_maxed
FNDA:1,_RNCNvNtNtCs4kTbYauoumE_12rust_backend8security5testss_53global_rate_limiting_succeeds_at_max_valid_rate_limit0B7_
FNDA:1,_RNCNvNtNtCs4kTbYauoumE_12rust_backend8security5testss_60record_failure_does_not_panic_when_failures_counter_is_maxed0B7_
FNF:9
FNH:9
DA:18,4
DA:19,4
DA:20,4
DA:21,4
DA:22,4
DA:23,4
DA:24,4
DA:25,4
DA:26,4
DA:27,4
DA:28,4
DA:29,4
DA:30,4
DA:33,1
DA:34,1
DA:35,1
DA:37,1
DA:38,1
DA:41,1
DA:42,1
DA:46,1
DA:49,1
DA:50,1
DA:53,1
DA:56,1
DA:57,1
DA:58,1
DA:60,1
DA:61,1
DA:64,1
DA:65,1
DA:66,1
DA:69,1
DA:70,1
DA:71,1
DA:73,1
DA:74,1
DA:75,1
DA:76,1
DA:79,1
DA:82,1
DA:83,1
DA:84,1
DA:85,1
DA:86,1
DA:87,1
DA:88,1
DA:89,1
DA:90,1
DA:91,1
DA:92,1
DA:93,1
DA:94,1
DA:95,1
DA:96,1
DA:98,1
DA:99,1
DA:100,1
DA:103,1
DA:104,1
DA:105,1
DA:106,1
DA:107,1
DA:108,1
DA:109,1
DA:110,1
DA:111,1
DA:112,1
DA:113,1
DA:114,1
DA:117,1
DA:118,1
DA:121,1
DA:122,1
DA:123,1
DA:124,1
DA:125,1
DA:126,1
DA:127,1
DA:128,1
DA:129,1
DA:130,1
DA:131,1
DA:132,1
DA:134,1
DA:135,1
DA:136,1
DA:138,1
DA:139,1
DA:142,1
BRF:0
BRH:0
LF:92
LH:92
end_of_record
SF:/Users/mykolborghese/rust-backend/src/security/rate_limit.rs
FN:4,_RNvNtNtCscP9pq2ikS3v_12rust_backend8security10rate_limit20global_rate_limiting
FN:4,_RNvNtNtCs4kTbYauoumE_12rust_backend8security10rate_limit20global_rate_limiting
FNDA:0,_RNvNtNtCscP9pq2ikS3v_12rust_backend8security10rate_limit20global_rate_limiting
FNDA:2,_RNvNtNtCs4kTbYauoumE_12rust_backend8security10rate_limit20global_rate_limiting
FNF:1
FNH:1
DA:4,2
DA:5,2
DA:6,2
DA:7,2
DA:8,2
DA:10,2
DA:11,0
DA:15,2
DA:17,2
DA:18,2
DA:20,2
DA:21,2
DA:22,2
DA:23,2
DA:25,2
DA:27,0
DA:28,0
DA:29,0
DA:30,0
DA:31,0
DA:32,0
DA:36,2
DA:37,2
BRF:0
BRH:0
LF:23
LH:16
end_of_record
SF:/Users/mykolborghese/rust-backend/src/utils/auth0_claims.rs
FN:41,_RNvMNtNtCscP9pq2ikS3v_12rust_backend5utils12auth0_claimsNtB2_8Audience6to_vec
FN:34,_RNvMNtNtCscP9pq2ikS3v_12rust_backend5utils12auth0_claimsNtB2_8Audience8contains
FN:105,_RNvMs_NtNtCscP9pq2ikS3v_12rust_backend5utils12auth0_claimsNtB4_16Auth0UserContext11from_claims
FN:114,_RNvMs_NtNtCscP9pq2ikS3v_12rust_backend5utils12auth0_claimsNtB4_16Auth0UserContext21from_claims_with_role
FN:57,_RNvNtNtCscP9pq2ikS3v_12rust_backend5utils12auth0_claims14map_auth0_role
FN:88,_RNvNtNtCscP9pq2ikS3v_12rust_backend5utils12auth0_claims23extract_role_from_value
FN:37,_RNCNvMNtNtCscP9pq2ikS3v_12rust_backend5utils12auth0_claimsNtB4_8Audience8contains0B8_
FN:143,_RNvNtNtNtCs4kTbYauoumE_12rust_backend5utils12auth0_claims5tests23test_claims_with_custom
FN:228,_RNvNtNtNtCs4kTbYauoumE_12rust_backend5utils12auth0_claims5testss_24audience_single_contains
FN:235,_RNvNtNtNtCs4kTbYauoumE_12rust_backend5utils12auth0_claims5testss_26audience_multiple_contains
FN:249,_RNvNtNtNtCs4kTbYauoumE_12rust_backend5utils12auth0_claims5testss_32creates_user_context_from_claims
FN:304,_RNvNtNtNtCs4kTbYauoumE_12rust_backend5utils12auth0_claims5testss_36from_claims_vs_from_claims_with_role
FN:220,_RNvNtNtNtCs4kTbYauoumE_12rust_backend5utils12auth0_claims5testss_37defaults_to_renter_when_no_role_claim
FN:163,_RNvNtNtNtCs4kTbYauoumE_12rust_backend5utils12auth0_claims5testss_37maps_role_from_namespaced_roles_array
FN:178,_RNvNtNtNtCs4kTbYauoumE_12rust_backend5utils12auth0_claims5testss_38maps_role_from_namespaced_roles_string
FN:193,_RNvNtNtNtCs4kTbYauoumE_12rust_backend5utils12auth0_claims5testss_41maps_role_from_non_namespaced_roles_claim
FN:205,_RNvNtNtNtCs4kTbYauoumE_12rust_backend5utils12auth0_claims5testss_43maps_role_from_namespaced_single_role_claim
FN:274,_RNvNtNtNtCs4kTbYauoumE_12rust_backend5utils12auth0_claims5testss_45creates_user_context_from_claims_with_db_role
FN:37,_RNCNvMNtNtCs4kTbYauoumE_12rust_backend5utils12auth0_claimsNtB4_8Audience8contains0B8_
FN:34,_RNvMNtNtCs4kTbYauoumE_12rust_backend5utils12auth0_claimsNtB2_8Audience8contains
FN:105,_RNvMs_NtNtCs4kTbYauoumE_12rust_backend5utils12auth0_claimsNtB4_16Auth0UserContext11from_claims
FN:114,_RNvMs_NtNtCs4kTbYauoumE_12rust_backend5utils12auth0_claimsNtB4_16Auth0UserContext21from_claims_with_role
FN:57,_RNvNtNtCs4kTbYauoumE_12rust_backend5utils12auth0_claims14map_auth0_role
FN:88,_RNvNtNtCs4kTbYauoumE_12rust_backend5utils12auth0_claims23extract_role_from_value
FN:41,_RNvMNtNtCs4kTbYauoumE_12rust_backend5utils12auth0_claimsNtB2_8Audience6to_vec
FNDA:0,_RNvMNtNtCscP9pq2ikS3v_12rust_backend5utils12auth0_claimsNtB2_8Audience6to_vec
FNDA:0,_RNvMNtNtCscP9pq2ikS3v_12rust_backend5utils12auth0_claimsNtB2_8Audience8contains
FNDA:0,_RNvMs_NtNtCscP9pq2ikS3v_12rust_backend5utils12auth0_claimsNtB4_16Auth0UserContext11from_claims
FNDA:0,_RNvMs_NtNtCscP9pq2ikS3v_12rust_backend5utils12auth0_claimsNtB4_16Auth0UserContext21from_claims_with_role
FNDA:0,_RNvNtNtCscP9pq2ikS3v_12rust_backend5utils12auth0_claims14map_auth0_role
FNDA:0,_RNvNtNtCscP9pq2ikS3v_12rust_backend5utils12auth0_claims23extract_role_from_value
FNDA:0,_RNCNvMNtNtCscP9pq2ikS3v_12rust_backend5utils12auth0_claimsNtB4_8Audience8contains0B8_
FNDA:8,_RNvNtNtNtCs4kTbYauoumE_12rust_backend5utils12auth0_claims5tests23test_claims_with_custom
FNDA:1,_RNvNtNtNtCs4kTbYauoumE_12rust_backend5utils12auth0_claims5testss_24audience_single_contains
FNDA:1,_RNvNtNtNtCs4kTbYauoumE_12rust_backend5utils12auth0_claims5testss_26audience_multiple_contains
FNDA:1,_RNvNtNtNtCs4kTbYauoumE_12rust_backend5utils12auth0_claims5testss_32creates_user_context_from_claims
FNDA:1,_RNvNtNtNtCs4kTbYauoumE_12rust_backend5utils12auth0_claims5testss_36from_claims_vs_from_claims_with_role
FNDA:1,_RNvNtNtNtCs4kTbYauoumE_12rust_backend5utils12auth0_claims5testss_37defaults_to_renter_when_no_role_claim
FNDA:1,_RNvNtNtNtCs4kTbYauoumE_12rust_backend5utils12auth0_claims5testss_37maps_role_from_namespaced_roles_array
FNDA:1,_RNvNtNtNtCs4kTbYauoumE_12rust_backend5utils12auth0_claims5testss_38maps_role_from_namespaced_roles_string
FNDA:1,_RNvNtNtNtCs4kTbYauoumE_12rust_backend5utils12auth0_claims5testss_41maps_role_from_non_namespaced_roles_claim
FNDA:1,_RNvNtNtNtCs4kTbYauoumE_12rust_backend5utils12auth0_claims5testss_43maps_role_from_namespaced_single_role_claim
FNDA:1,_RNvNtNtNtCs4kTbYauoumE_12rust_backend5utils12auth0_claims5testss_45creates_user_context_from_claims_with_db_role
FNDA:10,_RNCNvMNtNtCs4kTbYauoumE_12rust_backend5utils12auth0_claimsNtB4_8Audience8contains0B8_
FNDA:10,_RNvMNtNtCs4kTbYauoumE_12rust_backend5utils12auth0_claimsNtB2_8Audience8contains
FNDA:2,_RNvMs_NtNtCs4kTbYauoumE_12rust_backend5utils12auth0_claimsNtB4_16Auth0UserContext11from_claims
FNDA:2,_RNvMs_NtNtCs4kTbYauoumE_12rust_backend5utils12auth0_claimsNtB4_16Auth0UserContext21from_claims_with_role
FNDA:7,_RNvNtNtCs4kTbYauoumE_12rust_backend5utils12auth0_claims14map_auth0_role
FNDA:5,_RNvNtNtCs4kTbYauoumE_12rust_backend5utils12auth0_claims23extract_role_from_value
FNDA:0,_RNvMNtNtCs4kTbYauoumE_12rust_backend5utils12auth0_claimsNtB2_8Audience6to_vec
FNF:18
FNH:17
DA:34,10
DA:35,10
DA:36,4
DA:37,10
DA:39,10
DA:41,0
DA:42,0
DA:43,0
DA:44,0
DA:46,0
DA:57,7
DA:58,7
DA:60,7
DA:61,4
DA:62,4
DA:63,0
DA:64,3
DA:66,3
DA:67,1
DA:68,1
DA:69,0
DA:70,2
DA:72,2
DA:73,2
DA:74,1
DA:75,1
DA:76,0
DA:77,1
DA:79,1
DA:80,0
DA:81,0
DA:82,0
DA:83,1
DA:85,1
DA:86,7
DA:88,5
DA:89,5
DA:90,1
DA:91,4
DA:93,4
DA:94,4
DA:95,4
DA:96,4
DA:97,0
DA:98,0
DA:99,0
DA:101,0
DA:102,5
DA:105,2
DA:106,2
DA:107,2
DA:108,2
DA:109,2
DA:110,2
DA:111,2
DA:112,2
DA:114,2
DA:115,2
DA:116,2
DA:117,2
DA:118,2
DA:119,2
DA:120,2
DA:121,2
DA:122,2
DA:123,2
DA:124,2
DA:125,2
DA:126,2
DA:143,8
DA:144,8
DA:145,8
DA:146,8
DA:147,8
DA:148,8
DA:149,8
DA:150,8
DA:151,8
DA:152,8
DA:153,8
DA:154,8
DA:155,8
DA:156,8
DA:157,8
DA:158,8
DA:163,1
DA:164,1
DA:165,1
DA:166,1
DA:167,1
DA:169,1
DA:171,1
DA:172,1
DA:173,1
DA:178,1
DA:179,1
DA:180,1
DA:181,1
DA:182,1
DA:184,1
DA:186,1
DA:187,1
DA:188,1
DA:193,1
DA:194,1
DA:195,1
DA:196,1
DA:198,1
DA:199,1
DA:200,1
DA:205,1
DA:206,1
DA:207,1
DA:208,1
DA:209,1
DA:211,1
DA:213,1
DA:214,1
DA:215,1
DA:220,1
DA:221,1
DA:223,1
DA:224,1
DA:225,1
DA:228,1
DA:229,1
DA:230,1
DA:231,1
DA:232,1
DA:235,1
DA:236,1
DA:237,1
DA:238,1
DA:239,1
DA:240,1
DA:249,1
DA:250,1
DA:251,1
DA:252,1
DA:253,1
DA:255,1
DA:256,1
DA:258,1
DA:260,1
DA:261,1
DA:262,1
DA:263,1
DA:264,1
DA:274,1
DA:275,1
DA:276,1
DA:277,1
DA:278,1
DA:280,1
DA:281,1
DA:284,1
DA:285,1
DA:286,1
DA:287,1
DA:288,1
DA:291,1
DA:292,1
DA:293,1
DA:294,1
DA:295,1
DA:304,1
DA:305,1
DA:306,1
DA:307,1
DA:308,1
DA:310,1
DA:311,1
DA:314,1
DA:315,1
DA:318,1
DA:319,1
DA:320,1
DA:321,1
DA:322,1
DA:324,1
DA:325,1
BRF:0
BRH:0
LF:182
LH:167
end_of_record
SF:/Users/mykolborghese/rust-backend/src/utils/auth0_jwks.rs
FN:69,_RNCNvMNtNtCscP9pq2ikS3v_12rust_backend5utils10auth0_jwksNtB4_15Auth0JwksClient15get_signing_key0B8_
FN:74,_RNCNCNvMNtNtCscP9pq2ikS3v_12rust_backend5utils10auth0_jwksNtB6_15Auth0JwksClient10fetch_jwks00Ba_
FN:98,_RNCNCNvMNtNtCscP9pq2ikS3v_12rust_backend5utils10auth0_jwksNtB6_15Auth0JwksClient10fetch_jwks0s_0Ba_
FN:164,_RNCNCNvMNtNtCscP9pq2ikS3v_12rust_backend5utils10auth0_jwksNtB6_15Auth0JwksClient16get_decoding_key00Ba_
FN:142,_RNCNCNvMNtNtCscP9pq2ikS3v_12rust_backend5utils10auth0_jwksNtB6_15Auth0JwksClient16get_key_material00Ba_
FN:142,_RNCNCNvMNtNtCscP9pq2ikS3v_12rust_backend5utils10auth0_jwksNtB6_15Auth0JwksClient16get_key_material0s_0Ba_
FN:201,_RNCNCNvNtNtCscP9pq2ikS3v_12rust_backend5utils10auth0_jwks20validate_auth0_token00B9_
FN:218,_RNCNCNvNtNtCscP9pq2ikS3v_12rust_backend5utils10auth0_jwks20validate_auth0_token0s0_0B9_
FN:228,_RNCNCNvNtNtCscP9pq2ikS3v_12rust_backend5utils10auth0_jwks20validate_auth0_token0s1_0B9_
FN:233,_RNCNCNvNtNtCscP9pq2ikS3v_12rust_backend5utils10auth0_jwks20validate_auth0_token0s2_0B9_
FN:239,_RNCNCNvNtNtCscP9pq2ikS3v_12rust_backend5utils10auth0_jwks20validate_auth0_token0s3_0B9_
FN:210,_RNCNCNvNtNtCscP9pq2ikS3v_12rust_backend5utils10auth0_jwks20validate_auth0_token0s_0B9_
FN:73,_RNCNvMNtNtCscP9pq2ikS3v_12rust_backend5utils10auth0_jwksNtB4_15Auth0JwksClient10fetch_jwks0B8_
FN:157,_RNCNvMNtNtCscP9pq2ikS3v_12rust_backend5utils10auth0_jwksNtB4_15Auth0JwksClient16get_decoding_key0B8_
FN:135,_RNCNvMNtNtCscP9pq2ikS3v_12rust_backend5utils10auth0_jwksNtB4_15Auth0JwksClient16get_key_material0B8_
FN:111,_RNCNvMNtNtCscP9pq2ikS3v_12rust_backend5utils10auth0_jwksNtB4_15Auth0JwksClient19jwk_to_key_material0B8_
FN:120,_RNCNvMNtNtCscP9pq2ikS3v_12rust_backend5utils10auth0_jwksNtB4_15Auth0JwksClient19jwk_to_key_materials_0B8_
FN:51,_RNCNvMNtNtCscP9pq2ikS3v_12rust_backend5utils10auth0_jwksNtB4_15Auth0JwksClient3new0B8_
FN:200,_RNCNvNtNtCscP9pq2ikS3v_12rust_backend5utils10auth0_jwks20validate_auth0_token0B7_
FN:73,_RNvMNtNtCscP9pq2ikS3v_12rust_backend5utils10auth0_jwksNtB2_15Auth0JwksClient10fetch_jwks
FN:69,_RNvMNtNtCscP9pq2ikS3v_12rust_backend5utils10auth0_jwksNtB2_15Auth0JwksClient15get_signing_key
FN:157,_RNvMNtNtCscP9pq2ikS3v_12rust_backend5utils10auth0_jwksNtB2_15Auth0JwksClient16get_decoding_key
FN:135,_RNvMNtNtCscP9pq2ikS3v_12rust_backend5utils10auth0_jwksNtB2_15Auth0JwksClient16get_key_material
FN:110,_RNvMNtNtCscP9pq2ikS3v_12rust_backend5utils10auth0_jwksNtB2_15Auth0JwksClient19jwk_to_key_material
FN:50,_RNvMNtNtCscP9pq2ikS3v_12rust_backend5utils10auth0_jwksNtB2_15Auth0JwksClient3new
FN:196,_RNvNtNtCscP9pq2ikS3v_12rust_backend5utils10auth0_jwks20validate_auth0_token
FN:177,_RNvXs4_NtNtCscP9pq2ikS3v_12rust_backend5utils10auth0_jwksNtB5_15Auth0JwksClientNtB5_12JwksProvider16get_decoding_key
FN:188,_RNvXs5_NtNtCscP9pq2ikS3v_12rust_backend5utils10auth0_jwksNtB5_20DisabledJwksProviderNtB5_12JwksProvider16get_decoding_key
FN:328,_RNvNtNtNtCs4kTbYauoumE_12rust_backend5utils10auth0_jwks5tests11test_claims
FN:416,_RNvNtNtNtCs4kTbYauoumE_12rust_backend5utils10auth0_jwks5tests11test_config
FN:370,_RNvNtNtNtCs4kTbYauoumE_12rust_backend5utils10auth0_jwks5tests16tamper_signature
FN:343,_RNvNtNtNtCs4kTbYauoumE_12rust_backend5utils10auth0_jwks5tests18create_hs256_token
FN:358,_RNvNtNtNtCs4kTbYauoumE_12rust_backend5utils10auth0_jwks5tests18create_rs256_token
FN:383,_RNvNtNtNtCs4kTbYauoumE_12rust_backend5utils10auth0_jwks5tests26spawn_one_shot_jwks_server
FN:454,_RNvNtNtNtCs4kTbYauoumE_12rust_backend5utils10auth0_jwks5testss_25issuer_fallback_to_domain
FN:471,_RNvNtNtNtCs4kTbYauoumE_12rust_backend5utils10auth0_jwks5testss_26jwk_deserializes_correctly
FN:489,_RNvNtNtNtCs4kTbYauoumE_12rust_backend5utils10auth0_jwks5testss_27jwks_deserializes_correctly
FN:439,_RNvNtNtNtCs4kTbYauoumE_12rust_backend5utils10auth0_jwks5testss_32jwks_client_fails_without_domain
FN:429,_RNvNtNtNtCs4kTbYauoumE_12rust_backend5utils10auth0_jwks5testss_34jwks_client_constructs_correct_url
FN:402,_RNvNtNtNtCs4kTbYauoumE_12rust_backend5utils10auth0_jwks5testss_37aud_single_contains_matching_audience
FN:409,_RNvNtNtNtCs4kTbYauoumE_12rust_backend5utils10auth0_jwks5testss_39aud_multiple_contains_matching_audience
FN:581,_RNvNtNtNtCs4kTbYauoumE_12rust_backend5utils10auth0_jwks5testss_49get_signing_key_returns_cached_value_on_cache_hit
FN:526,_RNvNtNtNtCs4kTbYauoumE_12rust_backend5utils10auth0_jwks5testss_53validate_auth0_token_rejects_token_without_kid_header
FN:552,_RNvNtNtNtCs4kTbYauoumE_12rust_backend5utils10auth0_jwks5testss_56validate_auth0_token_fails_when_issuer_is_not_configured
FN:666,_RNvNtNtNtCs4kTbYauoumE_12rust_backend5utils10auth0_jwks5testss_56validate_auth0_token_maps_invalid_issuer_to_unauthorized
FN:618,_RNvNtNtNtCs4kTbYauoumE_12rust_backend5utils10auth0_jwks5testss_58get_decoding_key_returns_error_for_invalid_base64_exponent
FN:567,_RNvNtNtNtCs4kTbYauoumE_12rust_backend5utils10auth0_jwks5testss_58validate_auth0_token_fails_when_audience_is_not_configured
FN:683,_RNvNtNtNtCs4kTbYauoumE_12rust_backend5utils10auth0_jwks5testss_58validate_auth0_token_maps_invalid_audience_to_unauthorized
FN:700,_RNvNtNtNtCs4kTbYauoumE_12rust_backend5utils10auth0_jwks5testss_59validate_auth0_token_maps_invalid_signature_to_unauthorized
FN:602,_RNvNtNtNtCs4kTbYauoumE_12rust_backend5utils10auth0_jwks5testss_60jwk_to_key_material_returns_error_for_invalid_base64_modulus
FN:649,_RNvNtNtNtCs4kTbYauoumE_12rust_backend5utils10auth0_jwks5testss_60validate_auth0_token_maps_expired_signature_to_token_expired
FN:631,_RNvNtNtNtCs4kTbYauoumE_12rust_backend5utils10auth0_jwks5testss_63get_decoding_key_reuses_cached_material_without_refetching_jwks
FN:514,_RNvNtNtNtCs4kTbYauoumE_12rust_backend5utils10auth0_jwks5testss_64validate_auth0_token_rejects_malformed_token_without_jwks_lookup
FN:539,_RNvNtNtNtCs4kTbYauoumE_12rust_backend5utils10auth0_jwks5testss_65validate_auth0_token_maps_key_resolution_failures_to_unauthorized
FN:311,_RNvXNtNtNtCs4kTbYauoumE_12rust_backend5utils10auth0_jwks5testsNtB2_20CountingJwksProviderNtB4_12JwksProvider16get_decoding_key
FN:323,_RNvXs_NtNtNtCs4kTbYauoumE_12rust_backend5utils10auth0_jwks5testsNtB4_18StaticJwksProviderNtB6_12JwksProvider16get_decoding_key
FN:73,_RNvMNtNtCs4kTbYauoumE_12rust_backend5utils10auth0_jwksNtB2_15Auth0JwksClient10fetch_jwks
FN:69,_RNvMNtNtCs4kTbYauoumE_12rust_backend5utils10auth0_jwksNtB2_15Auth0JwksClient15get_signing_key
FN:157,_RNvMNtNtCs4kTbYauoumE_12rust_backend5utils10auth0_jwksNtB2_15Auth0JwksClient16get_decoding_key
FN:135,_RNvMNtNtCs4kTbYauoumE_12rust_backend5utils10auth0_jwksNtB2_15Auth0JwksClient16get_key_material
FN:110,_RNvMNtNtCs4kTbYauoumE_12rust_backend5utils10auth0_jwksNtB2_15Auth0JwksClient19jwk_to_key_material
FN:50,_RNvMNtNtCs4kTbYauoumE_12rust_backend5utils10auth0_jwksNtB2_15Auth0JwksClient3new
FN:196,_RNvNtNtCs4kTbYauoumE_12rust_backend5utils10auth0_jwks20validate_auth0_token
FN:386,_RNCNvNtNtNtCs4kTbYauoumE_12rust_backend5utils10auth0_jwks5tests26spawn_one_shot_jwks_server0B9_
FN:581,_RNCNvNtNtNtCs4kTbYauoumE_12rust_backend5utils10auth0_jwks5testss_49get_signing_key_returns_cached_value_on_cache_hit0B9_
FN:526,_RNCNvNtNtNtCs4kTbYauoumE_12rust_backend5utils10auth0_jwks5testss_53validate_auth0_token_rejects_token_without_kid_header0B9_
FN:552,_RNCNvNtNtNtCs4kTbYauoumE_12rust_backend5utils10auth0_jwks5testss_56validate_auth0_token_fails_when_issuer_is_not_configured0B9_
FN:666,_RNCNvNtNtNtCs4kTbYauoumE_12rust_backend5utils10auth0_jwks5testss_56validate_auth0_token_maps_invalid_issuer_to_unauthorized0B9_
FN:618,_RNCNvNtNtNtCs4kTbYauoumE_12rust_backend5utils10auth0_jwks5testss_58get_decoding_key_returns_error_for_invalid_base64_exponent0B9_
FN:567,_RNCNvNtNtNtCs4kTbYauoumE_12rust_backend5utils10auth0_jwks5testss_58validate_auth0_token_fails_when_audience_is_not_configured0B9_
FN:683,_RNCNvNtNtNtCs4kTbYauoumE_12rust_backend5utils10auth0_jwks5testss_58validate_auth0_token_maps_invalid_audience_to_unauthorized0B9_
FN:700,_RNCNvNtNtNtCs4kTbYauoumE_12rust_backend5utils10auth0_jwks5testss_59validate_auth0_token_maps_invalid_signature_to_unauthorized0B9_
FN:649,_RNCNvNtNtNtCs4kTbYauoumE_12rust_backend5utils10auth0_jwks5testss_60validate_auth0_token_maps_expired_signature_to_token_expired0B9_
FN:631,_RNCNvNtNtNtCs4kTbYauoumE_12rust_backend5utils10auth0_jwks5testss_63get_decoding_key_reuses_cached_material_without_refetching_jwks0B9_
FN:514,_RNCNvNtNtNtCs4kTbYauoumE_12rust_backend5utils10auth0_jwks5testss_64validate_auth0_token_rejects_malformed_token_without_jwks_lookup0B9_
FN:539,_RNCNvNtNtNtCs4kTbYauoumE_12rust_backend5utils10auth0_jwks5testss_65validate_auth0_token_maps_key_resolution_failures_to_unauthorized0B9_
FN:177,_RNvXs4_NtNtCs4kTbYauoumE_12rust_backend5utils10auth0_jwksNtB5_15Auth0JwksClientNtB5_12JwksProvider16get_decoding_key
FN:188,_RNvXs5_NtNtCs4kTbYauoumE_12rust_backend5utils10auth0_jwksNtB5_20DisabledJwksProviderNtB5_12JwksProvider16get_decoding_key
FN:74,_RNCNCNvMNtNtCs4kTbYauoumE_12rust_backend5utils10auth0_jwksNtB6_15Auth0JwksClient10fetch_jwks00Ba_
FN:98,_RNCNCNvMNtNtCs4kTbYauoumE_12rust_backend5utils10auth0_jwksNtB6_15Auth0JwksClient10fetch_jwks0s_0Ba_
FN:164,_RNCNCNvMNtNtCs4kTbYauoumE_12rust_backend5utils10auth0_jwksNtB6_15Auth0JwksClient16get_decoding_key00Ba_
FN:142,_RNCNCNvMNtNtCs4kTbYauoumE_12rust_backend5utils10auth0_jwksNtB6_15Auth0JwksClient16get_key_material00Ba_
FN:142,_RNCNCNvMNtNtCs4kTbYauoumE_12rust_backend5utils10auth0_jwksNtB6_15Auth0JwksClient16get_key_material0s_0Ba_
FN:201,_RNCNCNvNtNtCs4kTbYauoumE_12rust_backend5utils10auth0_jwks20validate_auth0_token00B9_
FN:218,_RNCNCNvNtNtCs4kTbYauoumE_12rust_backend5utils10auth0_jwks20validate_auth0_token0s0_0B9_
FN:228,_RNCNCNvNtNtCs4kTbYauoumE_12rust_backend5utils10auth0_jwks20validate_auth0_token0s1_0B9_
FN:233,_RNCNCNvNtNtCs4kTbYauoumE_12rust_backend5utils10auth0_jwks20validate_auth0_token0s2_0B9_
FN:239,_RNCNCNvNtNtCs4kTbYauoumE_12rust_backend5utils10auth0_jwks20validate_auth0_token0s3_0B9_
FN:210,_RNCNCNvNtNtCs4kTbYauoumE_12rust_backend5utils10auth0_jwks20validate_auth0_token0s_0B9_
FN:73,_RNCNvMNtNtCs4kTbYauoumE_12rust_backend5utils10auth0_jwksNtB4_15Auth0JwksClient10fetch_jwks0B8_
FN:69,_RNCNvMNtNtCs4kTbYauoumE_12rust_backend5utils10auth0_jwksNtB4_15Auth0JwksClient15get_signing_key0B8_
FN:157,_RNCNvMNtNtCs4kTbYauoumE_12rust_backend5utils10auth0_jwksNtB4_15Auth0JwksClient16get_decoding_key0B8_
FN:135,_RNCNvMNtNtCs4kTbYauoumE_12rust_backend5utils10auth0_jwksNtB4_15Auth0JwksClient16get_key_material0B8_
FN:111,_RNCNvMNtNtCs4kTbYauoumE_12rust_backend5utils10auth0_jwksNtB4_15Auth0JwksClient19jwk_to_key_material0B8_
FN:120,_RNCNvMNtNtCs4kTbYauoumE_12rust_backend5utils10auth0_jwksNtB4_15Auth0JwksClient19jwk_to_key_materials_0B8_
FN:51,_RNCNvMNtNtCs4kTbYauoumE_12rust_backend5utils10auth0_jwksNtB4_15Auth0JwksClient3new0B8_
FN:200,_RNCNvNtNtCs4kTbYauoumE_12rust_backend5utils10auth0_jwks20validate_auth0_token0B7_
FNDA:0,_RNCNvMNtNtCscP9pq2ikS3v_12rust_backend5utils10auth0_jwksNtB4_15Auth0JwksClient15get_signing_key0B8_
FNDA:0,_RNCNCNvMNtNtCscP9pq2ikS3v_12rust_backend5utils10auth0_jwksNtB6_15Auth0JwksClient10fetch_jwks00Ba_
FNDA:0,_RNCNCNvMNtNtCscP9pq2ikS3v_12rust_backend5utils10auth0_jwksNtB6_15Auth0JwksClient10fetch_jwks0s_0Ba_
FNDA:0,_RNCNCNvMNtNtCscP9pq2ikS3v_12rust_backend5utils10auth0_jwksNtB6_15Auth0JwksClient16get_decoding_key00Ba_
FNDA:0,_RNCNCNvMNtNtCscP9pq2ikS3v_12rust_backend5utils10auth0_jwksNtB6_15Auth0JwksClient16get_key_material00Ba_
FNDA:0,_RNCNCNvMNtNtCscP9pq2ikS3v_12rust_backend5utils10auth0_jwksNtB6_15Auth0JwksClient16get_key_material0s_0Ba_
FNDA:0,_RNCNCNvNtNtCscP9pq2ikS3v_12rust_backend5utils10auth0_jwks20validate_auth0_token00B9_
FNDA:0,_RNCNCNvNtNtCscP9pq2ikS3v_12rust_backend5utils10auth0_jwks20validate_auth0_token0s0_0B9_
FNDA:0,_RNCNCNvNtNtCscP9pq2ikS3v_12rust_backend5utils10auth0_jwks20validate_auth0_token0s1_0B9_
FNDA:0,_RNCNCNvNtNtCscP9pq2ikS3v_12rust_backend5utils10auth0_jwks20validate_auth0_token0s2_0B9_
FNDA:0,_RNCNCNvNtNtCscP9pq2ikS3v_12rust_backend5utils10auth0_jwks20validate_auth0_token0s3_0B9_
FNDA:0,_RNCNCNvNtNtCscP9pq2ikS3v_12rust_backend5utils10auth0_jwks20validate_auth0_token0s_0B9_
FNDA:0,_RNCNvMNtNtCscP9pq2ikS3v_12rust_backend5utils10auth0_jwksNtB4_15Auth0JwksClient10fetch_jwks0B8_
FNDA:0,_RNCNvMNtNtCscP9pq2ikS3v_12rust_backend5utils10auth0_jwksNtB4_15Auth0JwksClient16get_decoding_key0B8_
FNDA:0,_RNCNvMNtNtCscP9pq2ikS3v_12rust_backend5utils10auth0_jwksNtB4_15Auth0JwksClient16get_key_material0B8_
FNDA:0,_RNCNvMNtNtCscP9pq2ikS3v_12rust_backend5utils10auth0_jwksNtB4_15Auth0JwksClient19jwk_to_key_material0B8_
FNDA:0,_RNCNvMNtNtCscP9pq2ikS3v_12rust_backend5utils10auth0_jwksNtB4_15Auth0JwksClient19jwk_to_key_materials_0B8_
FNDA:1,_RNCNvMNtNtCscP9pq2ikS3v_12rust_backend5utils10auth0_jwksNtB4_15Auth0JwksClient3new0B8_
FNDA:0,_RNCNvNtNtCscP9pq2ikS3v_12rust_backend5utils10auth0_jwks20validate_auth0_token0B7_
FNDA:0,_RNvMNtNtCscP9pq2ikS3v_12rust_backend5utils10auth0_jwksNtB2_15Auth0JwksClient10fetch_jwks
FNDA:0,_RNvMNtNtCscP9pq2ikS3v_12rust_backend5utils10auth0_jwksNtB2_15Auth0JwksClient15get_signing_key
FNDA:0,_RNvMNtNtCscP9pq2ikS3v_12rust_backend5utils10auth0_jwksNtB2_15Auth0JwksClient16get_decoding_key
FNDA:0,_RNvMNtNtCscP9pq2ikS3v_12rust_backend5utils10auth0_jwksNtB2_15Auth0JwksClient16get_key_material
FNDA:0,_RNvMNtNtCscP9pq2ikS3v_12rust_backend5utils10auth0_jwksNtB2_15Auth0JwksClient19jwk_to_key_material
FNDA:2,_RNvMNtNtCscP9pq2ikS3v_12rust_backend5utils10auth0_jwksNtB2_15Auth0JwksClient3new
FNDA:0,_RNvNtNtCscP9pq2ikS3v_12rust_backend5utils10auth0_jwks20validate_auth0_token
FNDA:0,_RNvXs4_NtNtCscP9pq2ikS3v_12rust_backend5utils10auth0_jwksNtB5_15Auth0JwksClientNtB5_12JwksProvider16get_decoding_key
FNDA:1,_RNvXs5_NtNtCscP9pq2ikS3v_12rust_backend5utils10auth0_jwksNtB5_20DisabledJwksProviderNtB5_12JwksProvider16get_decoding_key
FNDA:8,_RNvNtNtNtCs4kTbYauoumE_12rust_backend5utils10auth0_jwks5tests11test_claims
FNDA:14,_RNvNtNtNtCs4kTbYauoumE_12rust_backend5utils10auth0_jwks5tests11test_config
FNDA:1,_RNvNtNtNtCs4kTbYauoumE_12rust_backend5utils10auth0_jwks5tests16tamper_signature
FNDA:4,_RNvNtNtNtCs4kTbYauoumE_12rust_backend5utils10auth0_jwks5tests18create_hs256_token
FNDA:4,_RNvNtNtNtCs4kTbYauoumE_12rust_backend5utils10auth0_jwks5tests18create_rs256_token
FNDA:2,_RNvNtNtNtCs4kTbYauoumE_12rust_backend5utils10auth0_jwks5tests26spawn_one_shot_jwks_server
FNDA:1,_RNvNtNtNtCs4kTbYauoumE_12rust_backend5utils10auth0_jwks5testss_25issuer_fallback_to_domain
FNDA:1,_RNvNtNtNtCs4kTbYauoumE_12rust_backend5utils10auth0_jwks5testss_26jwk_deserializes_correctly
FNDA:1,_RNvNtNtNtCs4kTbYauoumE_12rust_backend5utils10auth0_jwks5testss_27jwks_deserializes_correctly
FNDA:1,_RNvNtNtNtCs4kTbYauoumE_12rust_backend5utils10auth0_jwks5testss_32jwks_client_fails_without_domain
FNDA:1,_RNvNtNtNtCs4kTbYauoumE_12rust_backend5utils10auth0_jwks5testss_34jwks_client_constructs_correct_url
FNDA:1,_RNvNtNtNtCs4kTbYauoumE_12rust_backend5utils10auth0_jwks5testss_37aud_single_contains_matching_audience
FNDA:1,_RNvNtNtNtCs4kTbYauoumE_12rust_backend5utils10auth0_jwks5testss_39aud_multiple_contains_matching_audience
FNDA:1,_RNvNtNtNtCs4kTbYauoumE_12rust_backend5utils10auth0_jwks5testss_49get_signing_key_returns_cached_value_on_cache_hit
FNDA:1,_RNvNtNtNtCs4kTbYauoumE_12rust_backend5utils10auth0_jwks5testss_53validate_auth0_token_rejects_token_without_kid_header
FNDA:1,_RNvNtNtNtCs4kTbYauoumE_12rust_backend5utils10auth0_jwks5testss_56validate_auth0_token_fails_when_issuer_is_not_configured
FNDA:1,_RNvNtNtNtCs4kTbYauoumE_12rust_backend5utils10auth0_jwks5testss_56validate_auth0_token_maps_invalid_issuer_to_unauthorized
FNDA:1,_RNvNtNtNtCs4kTbYauoumE_12rust_backend5utils10auth0_jwks5testss_58get_decoding_key_returns_error_for_invalid_base64_exponent
FNDA:1,_RNvNtNtNtCs4kTbYauoumE_12rust_backend5utils10auth0_jwks5testss_58validate_auth0_token_fails_when_audience_is_not_configured
FNDA:1,_RNvNtNtNtCs4kTbYauoumE_12rust_backend5utils10auth0_jwks5testss_58validate_auth0_token_maps_invalid_audience_to_unauthorized
FNDA:1,_RNvNtNtNtCs4kTbYauoumE_12rust_backend5utils10auth0_jwks5testss_59validate_auth0_token_maps_invalid_signature_to_unauthorized
FNDA:1,_RNvNtNtNtCs4kTbYauoumE_12rust_backend5utils10auth0_jwks5testss_60jwk_to_key_material_returns_error_for_invalid_base64_modulus
FNDA:1,_RNvNtNtNtCs4kTbYauoumE_12rust_backend5utils10auth0_jwks5testss_60validate_auth0_token_maps_expired_signature_to_token_expired
FNDA:1,_RNvNtNtNtCs4kTbYauoumE_12rust_backend5utils10auth0_jwks5testss_63get_decoding_key_reuses_cached_material_without_refetching_jwks
FNDA:1,_RNvNtNtNtCs4kTbYauoumE_12rust_backend5utils10auth0_jwks5testss_64validate_auth0_token_rejects_malformed_token_without_jwks_lookup
FNDA:1,_RNvNtNtNtCs4kTbYauoumE_12rust_backend5utils10auth0_jwks5testss_65validate_auth0_token_maps_key_resolution_failures_to_unauthorized
FNDA:1,_RNvXNtNtNtCs4kTbYauoumE_12rust_backend5utils10auth0_jwks5testsNtB2_20CountingJwksProviderNtB4_12JwksProvider16get_decoding_key
FNDA:6,_RNvXs_NtNtNtCs4kTbYauoumE_12rust_backend5utils10auth0_jwks5testsNtB4_18StaticJwksProviderNtB6_12JwksProvider16get_decoding_key
FNDA:2,_RNvMNtNtCs4kTbYauoumE_12rust_backend5utils10auth0_jwksNtB2_15Auth0JwksClient10fetch_jwks
FNDA:1,_RNvMNtNtCs4kTbYauoumE_12rust_backend5utils10auth0_jwksNtB2_15Auth0JwksClient15get_signing_key
FNDA:3,_RNvMNtNtCs4kTbYauoumE_12rust_backend5utils10auth0_jwksNtB2_15Auth0JwksClient16get_decoding_key
FNDA:4,_RNvMNtNtCs4kTbYauoumE_12rust_backend5utils10auth0_jwksNtB2_15Auth0JwksClient16get_key_material
FNDA:3,_RNvMNtNtCs4kTbYauoumE_12rust_backend5utils10auth0_jwksNtB2_15Auth0JwksClient19jwk_to_key_material
FNDA:8,_RNvMNtNtCs4kTbYauoumE_12rust_backend5utils10auth0_jwksNtB2_15Auth0JwksClient3new
FNDA:10,_RNvNtNtCs4kTbYauoumE_12rust_backend5utils10auth0_jwks20validate_auth0_token
FNDA:2,_RNCNvNtNtNtCs4kTbYauoumE_12rust_backend5utils10auth0_jwks5tests26spawn_one_shot_jwks_server0B9_
FNDA:1,_RNCNvNtNtNtCs4kTbYauoumE_12rust_backend5utils10auth0_jwks5testss_49get_signing_key_returns_cached_value_on_cache_hit0B9_
FNDA:1,_RNCNvNtNtNtCs4kTbYauoumE_12rust_backend5utils10auth0_jwks5testss_53validate_auth0_token_rejects_token_without_kid_header0B9_
FNDA:1,_RNCNvNtNtNtCs4kTbYauoumE_12rust_backend5utils10auth0_jwks5testss_56validate_auth0_token_fails_when_issuer_is_not_configured0B9_
FNDA:1,_RNCNvNtNtNtCs4kTbYauoumE_12rust_backend5utils10auth0_jwks5testss_56validate_auth0_token_maps_invalid_issuer_to_unauthorized0B9_
FNDA:1,_RNCNvNtNtNtCs4kTbYauoumE_12rust_backend5utils10auth0_jwks5testss_58get_decoding_key_returns_error_for_invalid_base64_exponent0B9_
FNDA:1,_RNCNvNtNtNtCs4kTbYauoumE_12rust_backend5utils10auth0_jwks5testss_58validate_auth0_token_fails_when_audience_is_not_configured0B9_
FNDA:1,_RNCNvNtNtNtCs4kTbYauoumE_12rust_backend5utils10auth0_jwks5testss_58validate_auth0_token_maps_invalid_audience_to_unauthorized0B9_
FNDA:1,_RNCNvNtNtNtCs4kTbYauoumE_12rust_backend5utils10auth0_jwks5testss_59validate_auth0_token_maps_invalid_signature_to_unauthorized0B9_
FNDA:1,_RNCNvNtNtNtCs4kTbYauoumE_12rust_backend5utils10auth0_jwks5testss_60validate_auth0_token_maps_expired_signature_to_token_expired0B9_
FNDA:1,_RNCNvNtNtNtCs4kTbYauoumE_12rust_backend5utils10auth0_jwks5testss_63get_decoding_key_reuses_cached_material_without_refetching_jwks0B9_
FNDA:1,_RNCNvNtNtNtCs4kTbYauoumE_12rust_backend5utils10auth0_jwks5testss_64validate_auth0_token_rejects_malformed_token_without_jwks_lookup0B9_
FNDA:1,_RNCNvNtNtNtCs4kTbYauoumE_12rust_backend5utils10auth0_jwks5testss_65validate_auth0_token_maps_key_resolution_failures_to_unauthorized0B9_
FNDA:0,_RNvXs4_NtNtCs4kTbYauoumE_12rust_backend5utils10auth0_jwksNtB5_15Auth0JwksClientNtB5_12JwksProvider16get_decoding_key
FNDA:0,_RNvXs5_NtNtCs4kTbYauoumE_12rust_backend5utils10auth0_jwksNtB5_20DisabledJwksProviderNtB5_12JwksProvider16get_decoding_key
FNDA:0,_RNCNCNvMNtNtCs4kTbYauoumE_12rust_backend5utils10auth0_jwksNtB6_15Auth0JwksClient10fetch_jwks00Ba_
FNDA:0,_RNCNCNvMNtNtCs4kTbYauoumE_12rust_backend5utils10auth0_jwksNtB6_15Auth0JwksClient10fetch_jwks0s_0Ba_
FNDA:0,_RNCNCNvMNtNtCs4kTbYauoumE_12rust_backend5utils10auth0_jwksNtB6_15Auth0JwksClient16get_decoding_key00Ba_
FNDA:2,_RNCNCNvMNtNtCs4kTbYauoumE_12rust_backend5utils10auth0_jwksNtB6_15Auth0JwksClient16get_key_material00Ba_
FNDA:0,_RNCNCNvMNtNtCs4kTbYauoumE_12rust_backend5utils10auth0_jwksNtB6_15Auth0JwksClient16get_key_material0s_0Ba_
FNDA:1,_RNCNCNvNtNtCs4kTbYauoumE_12rust_backend5utils10auth0_jwks20validate_auth0_token00B9_
FNDA:1,_RNCNCNvNtNtCs4kTbYauoumE_12rust_backend5utils10auth0_jwks20validate_auth0_token0s0_0B9_
FNDA:1,_RNCNCNvNtNtCs4kTbYauoumE_12rust_backend5utils10auth0_jwks20validate_auth0_token0s1_0B9_
FNDA:1,_RNCNCNvNtNtCs4kTbYauoumE_12rust_backend5utils10auth0_jwks20validate_auth0_token0s2_0B9_
FNDA:4,_RNCNCNvNtNtCs4kTbYauoumE_12rust_backend5utils10auth0_jwks20validate_auth0_token0s3_0B9_
FNDA:1,_RNCNCNvNtNtCs4kTbYauoumE_12rust_backend5utils10auth0_jwks20validate_auth0_token0s_0B9_
FNDA:2,_RNCNvMNtNtCs4kTbYauoumE_12rust_backend5utils10auth0_jwksNtB4_15Auth0JwksClient10fetch_jwks0B8_
FNDA:1,_RNCNvMNtNtCs4kTbYauoumE_12rust_backend5utils10auth0_jwksNtB4_15Auth0JwksClient15get_signing_key0B8_
FNDA:3,_RNCNvMNtNtCs4kTbYauoumE_12rust_backend5utils10auth0_jwksNtB4_15Auth0JwksClient16get_decoding_key0B8_
FNDA:4,_RNCNvMNtNtCs4kTbYauoumE_12rust_backend5utils10auth0_jwksNtB4_15Auth0JwksClient16get_key_material0B8_
FNDA:1,_RNCNvMNtNtCs4kTbYauoumE_12rust_backend5utils10auth0_jwksNtB4_15Auth0JwksClient19jwk_to_key_material0B8_
FNDA:1,_RNCNvMNtNtCs4kTbYauoumE_12rust_backend5utils10auth0_jwksNtB4_15Auth0JwksClient19jwk_to_key_materials_0B8_
FNDA:1,_RNCNvMNtNtCs4kTbYauoumE_12rust_backend5utils10auth0_jwksNtB4_15Auth0JwksClient3new0B8_
FNDA:10,_RNCNvNtNtCs4kTbYauoumE_12rust_backend5utils10auth0_jwks20validate_auth0_token0B7_
FNF:69
FNH:64
DA:50,10
DA:51,10
DA:52,2
DA:53,2
DA:55,8
DA:57,8
DA:58,8
DA:59,8
DA:60,8
DA:62,8
DA:63,8
DA:64,8
DA:65,8
DA:66,8
DA:67,10
DA:69,1
DA:70,1
DA:71,1
DA:73,2
DA:74,2
DA:75,0
DA:81,0
DA:82,0
DA:84,2
DA:85,0
DA:86,0
DA:92,0
DA:93,0
DA:94,0
DA:95,0
DA:96,2
DA:98,2
DA:99,0
DA:104,0
DA:105,0
DA:107,2
DA:108,2
DA:110,3
DA:111,3
DA:112,1
DA:117,1
DA:118,1
DA:120,2
DA:121,1
DA:126,1
DA:127,1
DA:129,1
DA:130,1
DA:131,1
DA:132,1
DA:133,3
DA:135,4
DA:136,4
DA:137,2
DA:138,2
DA:140,2
DA:142,2
DA:143,0
DA:145,0
DA:149,0
DA:150,0
DA:152,2
DA:153,1
DA:154,1
DA:155,4
DA:157,3
DA:158,3
DA:160,2
DA:161,2
DA:162,2
DA:164,2
DA:165,0
DA:170,0
DA:171,0
DA:172,3
DA:177,0
DA:179,0
DA:188,1
DA:193,1
DA:196,10
DA:197,10
DA:198,10
DA:199,10
DA:200,10
DA:201,10
DA:202,1
DA:207,1
DA:208,1
DA:210,9
DA:211,1
DA:215,1
DA:216,1
DA:218,8
DA:219,1
DA:220,0
DA:222,1
DA:224,1
DA:226,7
DA:227,7
DA:228,7
DA:230,6
DA:231,6
DA:232,6
DA:233,6
DA:235,5
DA:236,5
DA:237,5
DA:239,5
DA:240,4
DA:241,4
DA:243,1
DA:244,1
DA:247,0
DA:251,0
DA:254,1
DA:259,1
DA:262,1
DA:267,1
DA:270,1
DA:274,1
DA:277,0
DA:282,0
DA:285,4
DA:287,1
DA:288,10
DA:311,1
DA:314,1
DA:323,6
DA:325,6
DA:328,8
DA:329,8
DA:330,8
DA:331,8
DA:332,8
DA:333,8
DA:334,8
DA:335,8
DA:336,8
DA:337,8
DA:338,8
DA:339,8
DA:340,8
DA:341,8
DA:343,4
DA:344,4
DA:345,4
DA:346,4
DA:347,4
DA:348,4
DA:349,4
DA:350,4
DA:351,4
DA:352,4
DA:353,4
DA:355,4
DA:356,4
DA:358,4
DA:359,4
DA:360,4
DA:361,4
DA:362,4
DA:363,4
DA:364,4
DA:365,4
DA:367,4
DA:368,4
DA:370,1
DA:371,1
DA:372,1
DA:373,1
DA:374,1
DA:375,1
DA:376,1
DA:377,1
DA:378,1
DA:379,1
DA:380,1
DA:381,1
DA:383,2
DA:384,2
DA:385,2
DA:386,2
DA:387,2
DA:388,2
DA:389,2
DA:390,2
DA:391,2
DA:392,2
DA:393,2
DA:394,2
DA:395,2
DA:396,2
DA:397,2
DA:398,2
DA:399,2
DA:402,1
DA:403,1
DA:404,1
DA:405,1
DA:406,1
DA:409,1
DA:410,1
DA:411,1
DA:412,1
DA:413,1
DA:414,1
DA:416,14
DA:417,14
DA:418,14
DA:419,14
DA:420,14
DA:421,14
DA:422,14
DA:423,14
DA:424,14
DA:425,14
DA:426,14
DA:429,1
DA:430,1
DA:431,1
DA:432,1
DA:436,1
DA:439,1
DA:440,1
DA:441,1
DA:442,1
DA:443,1
DA:444,1
DA:445,1
DA:446,1
DA:447,1
DA:448,1
DA:449,1
DA:450,1
DA:451,1
DA:454,1
DA:455,1
DA:456,1
DA:457,1
DA:458,1
DA:459,1
DA:460,1
DA:461,1
DA:462,1
DA:463,1
DA:464,1
DA:465,1
DA:466,1
DA:468,1
DA:471,1
DA:472,1
DA:473,1
DA:474,1
DA:475,1
DA:476,1
DA:477,1
DA:478,1
DA:479,1
DA:481,1
DA:482,1
DA:483,1
DA:484,1
DA:485,1
DA:486,1
DA:489,1
DA:490,1
DA:491,1
DA:492,1
DA:493,1
DA:494,1
DA:495,1
DA:496,1
DA:497,1
DA:498,1
DA:499,1
DA:500,1
DA:501,1
DA:502,1
DA:503,1
DA:504,1
DA:505,1
DA:507,1
DA:508,1
DA:509,1
DA:510,1
DA:511,1
DA:514,1
DA:515,1
DA:516,1
DA:517,1
DA:519,1
DA:521,1
DA:522,1
DA:523,1
DA:526,1
DA:527,1
DA:528,1
DA:529,1
DA:531,1
DA:532,1
DA:534,1
DA:535,1
DA:536,1
DA:539,1
DA:540,1
DA:541,1
DA:542,1
DA:543,1
DA:545,1
DA:547,1
DA:548,1
DA:549,1
DA:552,1
DA:553,1
DA:554,1
DA:555,1
DA:556,1
DA:557,1
DA:558,1
DA:559,1
DA:561,1
DA:563,1
DA:564,1
DA:567,1
DA:568,1
DA:569,1
DA:570,1
DA:571,1
DA:572,1
DA:573,1
DA:575,1
DA:577,1
DA:578,1
DA:581,1
DA:582,1
DA:583,1
DA:584,1
DA:585,1
DA:586,1
DA:587,1
DA:588,1
DA:589,1
DA:590,1
DA:591,1
DA:592,1
DA:593,1
DA:594,1
DA:596,1
DA:598,1
DA:599,1
DA:602,1
DA:603,1
DA:604,1
DA:605,1
DA:606,1
DA:607,1
DA:608,1
DA:609,1
DA:610,1
DA:611,1
DA:613,1
DA:614,1
DA:615,1
DA:618,1
DA:619,1
DA:620,1
DA:621,1
DA:622,1
DA:623,1
DA:626,1
DA:627,1
DA:628,1
DA:631,1
DA:632,1
DA:633,1
DA:635,1
DA:636,1
DA:637,1
DA:640,1
DA:641,1
DA:643,1
DA:644,1
DA:645,1
DA:646,1
DA:649,1
DA:650,1
DA:651,1
DA:652,1
DA:653,1
DA:654,1
DA:656,1
DA:657,1
DA:658,1
DA:659,1
DA:661,1
DA:662,1
DA:663,1
DA:666,1
DA:667,1
DA:668,1
DA:669,1
DA:670,1
DA:671,1
DA:673,1
DA:674,1
DA:675,1
DA:676,1
DA:678,1
DA:679,1
DA:680,1
DA:683,1
DA:684,1
DA:685,1
DA:686,1
DA:687,1
DA:688,1
DA:690,1
DA:691,1
DA:692,1
DA:693,1
DA:695,1
DA:696,1
DA:697,1
DA:700,1
DA:701,1
DA:702,1
DA:703,1
DA:704,1
DA:705,1
DA:707,1
DA:708,1
DA:709,1
DA:710,1
DA:711,1
DA:713,1
DA:714,1
DA:715,1
BRF:0
BRH:0
LF:491
LH:458
end_of_record